ARM GAS  C:\Users\hahnm\AppData\Local\Temp\cc4Pvs9Z.s 			page 1


   1              		.cpu cortex-m7
   2              		.eabi_attribute 28, 1
   3              		.eabi_attribute 20, 1
   4              		.eabi_attribute 21, 1
   5              		.eabi_attribute 23, 3
   6              		.eabi_attribute 24, 1
   7              		.eabi_attribute 25, 1
   8              		.eabi_attribute 26, 1
   9              		.eabi_attribute 30, 6
  10              		.eabi_attribute 34, 1
  11              		.eabi_attribute 18, 4
  12              		.file	"Reverb_test.cpp"
  13              		.text
  14              	.Ltext0:
  15              		.cfi_sections	.debug_frame
  16              		.section	.text._ZSt3absd,"axG",%progbits,_ZSt3absd,comdat
  17              		.align	1
  18              		.weak	_ZSt3absd
  19              		.arch armv7e-m
  20              		.syntax unified
  21              		.thumb
  22              		.thumb_func
  23              		.fpu fpv5-d16
  25              	_ZSt3absd:
  26              	.LFB140:
  27              		.file 1 "c:\\program files\\daisytoolchain\\arm-none-eabi\\include\\c++\\10.2.1\\bits\\std_abs.h"
   1:c:\program files\daisytoolchain\arm-none-eabi\include\c++\10.2.1\bits\std_abs.h **** // -*- C++ -*- C library enhancements header.
   2:c:\program files\daisytoolchain\arm-none-eabi\include\c++\10.2.1\bits\std_abs.h **** 
   3:c:\program files\daisytoolchain\arm-none-eabi\include\c++\10.2.1\bits\std_abs.h **** // Copyright (C) 2016-2020 Free Software Foundation, Inc.
   4:c:\program files\daisytoolchain\arm-none-eabi\include\c++\10.2.1\bits\std_abs.h **** //
   5:c:\program files\daisytoolchain\arm-none-eabi\include\c++\10.2.1\bits\std_abs.h **** // This file is part of the GNU ISO C++ Library.  This library is free
   6:c:\program files\daisytoolchain\arm-none-eabi\include\c++\10.2.1\bits\std_abs.h **** // software; you can redistribute it and/or modify it under the
   7:c:\program files\daisytoolchain\arm-none-eabi\include\c++\10.2.1\bits\std_abs.h **** // terms of the GNU General Public License as published by the
   8:c:\program files\daisytoolchain\arm-none-eabi\include\c++\10.2.1\bits\std_abs.h **** // Free Software Foundation; either version 3, or (at your option)
   9:c:\program files\daisytoolchain\arm-none-eabi\include\c++\10.2.1\bits\std_abs.h **** // any later version.
  10:c:\program files\daisytoolchain\arm-none-eabi\include\c++\10.2.1\bits\std_abs.h **** 
  11:c:\program files\daisytoolchain\arm-none-eabi\include\c++\10.2.1\bits\std_abs.h **** // This library is distributed in the hope that it will be useful,
  12:c:\program files\daisytoolchain\arm-none-eabi\include\c++\10.2.1\bits\std_abs.h **** // but WITHOUT ANY WARRANTY; without even the implied warranty of
  13:c:\program files\daisytoolchain\arm-none-eabi\include\c++\10.2.1\bits\std_abs.h **** // MERCHANTABILITY or FITNESS FOR A PARTICULAR PURPOSE.  See the
  14:c:\program files\daisytoolchain\arm-none-eabi\include\c++\10.2.1\bits\std_abs.h **** // GNU General Public License for more details.
  15:c:\program files\daisytoolchain\arm-none-eabi\include\c++\10.2.1\bits\std_abs.h **** 
  16:c:\program files\daisytoolchain\arm-none-eabi\include\c++\10.2.1\bits\std_abs.h **** // Under Section 7 of GPL version 3, you are granted additional
  17:c:\program files\daisytoolchain\arm-none-eabi\include\c++\10.2.1\bits\std_abs.h **** // permissions described in the GCC Runtime Library Exception, version
  18:c:\program files\daisytoolchain\arm-none-eabi\include\c++\10.2.1\bits\std_abs.h **** // 3.1, as published by the Free Software Foundation.
  19:c:\program files\daisytoolchain\arm-none-eabi\include\c++\10.2.1\bits\std_abs.h **** 
  20:c:\program files\daisytoolchain\arm-none-eabi\include\c++\10.2.1\bits\std_abs.h **** // You should have received a copy of the GNU General Public License and
  21:c:\program files\daisytoolchain\arm-none-eabi\include\c++\10.2.1\bits\std_abs.h **** // a copy of the GCC Runtime Library Exception along with this program;
  22:c:\program files\daisytoolchain\arm-none-eabi\include\c++\10.2.1\bits\std_abs.h **** // see the files COPYING3 and COPYING.RUNTIME respectively.  If not, see
  23:c:\program files\daisytoolchain\arm-none-eabi\include\c++\10.2.1\bits\std_abs.h **** // <http://www.gnu.org/licenses/>.
  24:c:\program files\daisytoolchain\arm-none-eabi\include\c++\10.2.1\bits\std_abs.h **** 
  25:c:\program files\daisytoolchain\arm-none-eabi\include\c++\10.2.1\bits\std_abs.h **** /** @file include/bits/std_abs.h
  26:c:\program files\daisytoolchain\arm-none-eabi\include\c++\10.2.1\bits\std_abs.h ****  *  This is an internal header file, included by other library headers.
  27:c:\program files\daisytoolchain\arm-none-eabi\include\c++\10.2.1\bits\std_abs.h ****  *  Do not attempt to use it directly. @headername{cmath, cstdlib}
  28:c:\program files\daisytoolchain\arm-none-eabi\include\c++\10.2.1\bits\std_abs.h ****  */
  29:c:\program files\daisytoolchain\arm-none-eabi\include\c++\10.2.1\bits\std_abs.h **** 
  30:c:\program files\daisytoolchain\arm-none-eabi\include\c++\10.2.1\bits\std_abs.h **** #ifndef _GLIBCXX_BITS_STD_ABS_H
  31:c:\program files\daisytoolchain\arm-none-eabi\include\c++\10.2.1\bits\std_abs.h **** #define _GLIBCXX_BITS_STD_ABS_H
ARM GAS  C:\Users\hahnm\AppData\Local\Temp\cc4Pvs9Z.s 			page 2


  32:c:\program files\daisytoolchain\arm-none-eabi\include\c++\10.2.1\bits\std_abs.h **** 
  33:c:\program files\daisytoolchain\arm-none-eabi\include\c++\10.2.1\bits\std_abs.h **** #pragma GCC system_header
  34:c:\program files\daisytoolchain\arm-none-eabi\include\c++\10.2.1\bits\std_abs.h **** 
  35:c:\program files\daisytoolchain\arm-none-eabi\include\c++\10.2.1\bits\std_abs.h **** #include <bits/c++config.h>
  36:c:\program files\daisytoolchain\arm-none-eabi\include\c++\10.2.1\bits\std_abs.h **** 
  37:c:\program files\daisytoolchain\arm-none-eabi\include\c++\10.2.1\bits\std_abs.h **** #define _GLIBCXX_INCLUDE_NEXT_C_HEADERS
  38:c:\program files\daisytoolchain\arm-none-eabi\include\c++\10.2.1\bits\std_abs.h **** #include_next <stdlib.h>
  39:c:\program files\daisytoolchain\arm-none-eabi\include\c++\10.2.1\bits\std_abs.h **** #ifdef __CORRECT_ISO_CPP_MATH_H_PROTO
  40:c:\program files\daisytoolchain\arm-none-eabi\include\c++\10.2.1\bits\std_abs.h **** # include_next <math.h>
  41:c:\program files\daisytoolchain\arm-none-eabi\include\c++\10.2.1\bits\std_abs.h **** #endif
  42:c:\program files\daisytoolchain\arm-none-eabi\include\c++\10.2.1\bits\std_abs.h **** #undef _GLIBCXX_INCLUDE_NEXT_C_HEADERS
  43:c:\program files\daisytoolchain\arm-none-eabi\include\c++\10.2.1\bits\std_abs.h **** 
  44:c:\program files\daisytoolchain\arm-none-eabi\include\c++\10.2.1\bits\std_abs.h **** #undef abs
  45:c:\program files\daisytoolchain\arm-none-eabi\include\c++\10.2.1\bits\std_abs.h **** 
  46:c:\program files\daisytoolchain\arm-none-eabi\include\c++\10.2.1\bits\std_abs.h **** extern "C++"
  47:c:\program files\daisytoolchain\arm-none-eabi\include\c++\10.2.1\bits\std_abs.h **** {
  48:c:\program files\daisytoolchain\arm-none-eabi\include\c++\10.2.1\bits\std_abs.h **** namespace std _GLIBCXX_VISIBILITY(default)
  49:c:\program files\daisytoolchain\arm-none-eabi\include\c++\10.2.1\bits\std_abs.h **** {
  50:c:\program files\daisytoolchain\arm-none-eabi\include\c++\10.2.1\bits\std_abs.h **** _GLIBCXX_BEGIN_NAMESPACE_VERSION
  51:c:\program files\daisytoolchain\arm-none-eabi\include\c++\10.2.1\bits\std_abs.h **** 
  52:c:\program files\daisytoolchain\arm-none-eabi\include\c++\10.2.1\bits\std_abs.h ****   using ::abs;
  53:c:\program files\daisytoolchain\arm-none-eabi\include\c++\10.2.1\bits\std_abs.h **** 
  54:c:\program files\daisytoolchain\arm-none-eabi\include\c++\10.2.1\bits\std_abs.h **** #ifndef __CORRECT_ISO_CPP_STDLIB_H_PROTO
  55:c:\program files\daisytoolchain\arm-none-eabi\include\c++\10.2.1\bits\std_abs.h ****   inline long
  56:c:\program files\daisytoolchain\arm-none-eabi\include\c++\10.2.1\bits\std_abs.h ****   abs(long __i) { return __builtin_labs(__i); }
  57:c:\program files\daisytoolchain\arm-none-eabi\include\c++\10.2.1\bits\std_abs.h **** #endif
  58:c:\program files\daisytoolchain\arm-none-eabi\include\c++\10.2.1\bits\std_abs.h **** 
  59:c:\program files\daisytoolchain\arm-none-eabi\include\c++\10.2.1\bits\std_abs.h **** #ifdef _GLIBCXX_USE_LONG_LONG
  60:c:\program files\daisytoolchain\arm-none-eabi\include\c++\10.2.1\bits\std_abs.h ****   inline long long
  61:c:\program files\daisytoolchain\arm-none-eabi\include\c++\10.2.1\bits\std_abs.h ****   abs(long long __x) { return __builtin_llabs (__x); }
  62:c:\program files\daisytoolchain\arm-none-eabi\include\c++\10.2.1\bits\std_abs.h **** #endif
  63:c:\program files\daisytoolchain\arm-none-eabi\include\c++\10.2.1\bits\std_abs.h **** 
  64:c:\program files\daisytoolchain\arm-none-eabi\include\c++\10.2.1\bits\std_abs.h **** // _GLIBCXX_RESOLVE_LIB_DEFECTS
  65:c:\program files\daisytoolchain\arm-none-eabi\include\c++\10.2.1\bits\std_abs.h **** // 2192. Validity and return type of std::abs(0u) is unclear
  66:c:\program files\daisytoolchain\arm-none-eabi\include\c++\10.2.1\bits\std_abs.h **** // 2294. <cstdlib> should declare abs(double)
  67:c:\program files\daisytoolchain\arm-none-eabi\include\c++\10.2.1\bits\std_abs.h **** // 2735. std::abs(short), std::abs(signed char) and others should return int
  68:c:\program files\daisytoolchain\arm-none-eabi\include\c++\10.2.1\bits\std_abs.h **** 
  69:c:\program files\daisytoolchain\arm-none-eabi\include\c++\10.2.1\bits\std_abs.h **** #ifndef __CORRECT_ISO_CPP_MATH_H_PROTO
  70:c:\program files\daisytoolchain\arm-none-eabi\include\c++\10.2.1\bits\std_abs.h ****   inline _GLIBCXX_CONSTEXPR double
  71:c:\program files\daisytoolchain\arm-none-eabi\include\c++\10.2.1\bits\std_abs.h ****   abs(double __x)
  72:c:\program files\daisytoolchain\arm-none-eabi\include\c++\10.2.1\bits\std_abs.h ****   { return __builtin_fabs(__x); }
  28              		.loc 1 72 3
  29              		.cfi_startproc
  30              		@ args = 0, pretend = 0, frame = 8
  31              		@ frame_needed = 1, uses_anonymous_args = 0
  32              		@ link register save eliminated.
  33 0000 80B4     		push	{r7}
  34              		.cfi_def_cfa_offset 4
  35              		.cfi_offset 7, -4
  36 0002 83B0     		sub	sp, sp, #12
  37              		.cfi_def_cfa_offset 16
  38 0004 00AF     		add	r7, sp, #0
  39              		.cfi_def_cfa_register 7
  40 0006 87ED000B 		vstr.64	d0, [r7]
  41              		.loc 1 72 30
  42 000a 97ED007B 		vldr.64	d7, [r7]
  43 000e B0EEC77B 		vabs.f64	d7, d7
ARM GAS  C:\Users\hahnm\AppData\Local\Temp\cc4Pvs9Z.s 			page 3


  44              		.loc 1 72 33
  45 0012 B0EE470B 		vmov.f64	d0, d7
  46 0016 0C37     		adds	r7, r7, #12
  47              		.cfi_def_cfa_offset 4
  48 0018 BD46     		mov	sp, r7
  49              		.cfi_def_cfa_register 13
  50              		@ sp needed
  51 001a 5DF8047B 		ldr	r7, [sp], #4
  52              		.cfi_restore 7
  53              		.cfi_def_cfa_offset 0
  54 001e 7047     		bx	lr
  55              		.cfi_endproc
  56              	.LFE140:
  58              		.section	.text._ZSt9nextafterff,"axG",%progbits,_ZSt9nextafterff,comdat
  59              		.align	1
  60              		.weak	_ZSt9nextafterff
  61              		.syntax unified
  62              		.thumb
  63              		.thumb_func
  64              		.fpu fpv5-d16
  66              	_ZSt9nextafterff:
  67              	.LFB328:
  68              		.file 2 "c:\\program files\\daisytoolchain\\arm-none-eabi\\include\\c++\\10.2.1\\cmath"
   1:c:\program files\daisytoolchain\arm-none-eabi\include\c++\10.2.1\cmath **** // -*- C++ -*- C forwarding header.
   2:c:\program files\daisytoolchain\arm-none-eabi\include\c++\10.2.1\cmath **** 
   3:c:\program files\daisytoolchain\arm-none-eabi\include\c++\10.2.1\cmath **** // Copyright (C) 1997-2020 Free Software Foundation, Inc.
   4:c:\program files\daisytoolchain\arm-none-eabi\include\c++\10.2.1\cmath **** //
   5:c:\program files\daisytoolchain\arm-none-eabi\include\c++\10.2.1\cmath **** // This file is part of the GNU ISO C++ Library.  This library is free
   6:c:\program files\daisytoolchain\arm-none-eabi\include\c++\10.2.1\cmath **** // software; you can redistribute it and/or modify it under the
   7:c:\program files\daisytoolchain\arm-none-eabi\include\c++\10.2.1\cmath **** // terms of the GNU General Public License as published by the
   8:c:\program files\daisytoolchain\arm-none-eabi\include\c++\10.2.1\cmath **** // Free Software Foundation; either version 3, or (at your option)
   9:c:\program files\daisytoolchain\arm-none-eabi\include\c++\10.2.1\cmath **** // any later version.
  10:c:\program files\daisytoolchain\arm-none-eabi\include\c++\10.2.1\cmath **** 
  11:c:\program files\daisytoolchain\arm-none-eabi\include\c++\10.2.1\cmath **** // This library is distributed in the hope that it will be useful,
  12:c:\program files\daisytoolchain\arm-none-eabi\include\c++\10.2.1\cmath **** // but WITHOUT ANY WARRANTY; without even the implied warranty of
  13:c:\program files\daisytoolchain\arm-none-eabi\include\c++\10.2.1\cmath **** // MERCHANTABILITY or FITNESS FOR A PARTICULAR PURPOSE.  See the
  14:c:\program files\daisytoolchain\arm-none-eabi\include\c++\10.2.1\cmath **** // GNU General Public License for more details.
  15:c:\program files\daisytoolchain\arm-none-eabi\include\c++\10.2.1\cmath **** 
  16:c:\program files\daisytoolchain\arm-none-eabi\include\c++\10.2.1\cmath **** // Under Section 7 of GPL version 3, you are granted additional
  17:c:\program files\daisytoolchain\arm-none-eabi\include\c++\10.2.1\cmath **** // permissions described in the GCC Runtime Library Exception, version
  18:c:\program files\daisytoolchain\arm-none-eabi\include\c++\10.2.1\cmath **** // 3.1, as published by the Free Software Foundation.
  19:c:\program files\daisytoolchain\arm-none-eabi\include\c++\10.2.1\cmath **** 
  20:c:\program files\daisytoolchain\arm-none-eabi\include\c++\10.2.1\cmath **** // You should have received a copy of the GNU General Public License and
  21:c:\program files\daisytoolchain\arm-none-eabi\include\c++\10.2.1\cmath **** // a copy of the GCC Runtime Library Exception along with this program;
  22:c:\program files\daisytoolchain\arm-none-eabi\include\c++\10.2.1\cmath **** // see the files COPYING3 and COPYING.RUNTIME respectively.  If not, see
  23:c:\program files\daisytoolchain\arm-none-eabi\include\c++\10.2.1\cmath **** // <http://www.gnu.org/licenses/>.
  24:c:\program files\daisytoolchain\arm-none-eabi\include\c++\10.2.1\cmath **** 
  25:c:\program files\daisytoolchain\arm-none-eabi\include\c++\10.2.1\cmath **** /** @file include/cmath
  26:c:\program files\daisytoolchain\arm-none-eabi\include\c++\10.2.1\cmath ****  *  This is a Standard C++ Library file.  You should @c \#include this file
  27:c:\program files\daisytoolchain\arm-none-eabi\include\c++\10.2.1\cmath ****  *  in your programs, rather than any of the @a *.h implementation files.
  28:c:\program files\daisytoolchain\arm-none-eabi\include\c++\10.2.1\cmath ****  *
  29:c:\program files\daisytoolchain\arm-none-eabi\include\c++\10.2.1\cmath ****  *  This is the C++ version of the Standard C Library header @c math.h,
  30:c:\program files\daisytoolchain\arm-none-eabi\include\c++\10.2.1\cmath ****  *  and its contents are (mostly) the same as that header, but are all
  31:c:\program files\daisytoolchain\arm-none-eabi\include\c++\10.2.1\cmath ****  *  contained in the namespace @c std (except for names which are defined
  32:c:\program files\daisytoolchain\arm-none-eabi\include\c++\10.2.1\cmath ****  *  as macros in C).
  33:c:\program files\daisytoolchain\arm-none-eabi\include\c++\10.2.1\cmath ****  */
  34:c:\program files\daisytoolchain\arm-none-eabi\include\c++\10.2.1\cmath **** 
ARM GAS  C:\Users\hahnm\AppData\Local\Temp\cc4Pvs9Z.s 			page 4


  35:c:\program files\daisytoolchain\arm-none-eabi\include\c++\10.2.1\cmath **** //
  36:c:\program files\daisytoolchain\arm-none-eabi\include\c++\10.2.1\cmath **** // ISO C++ 14882: 26.5  C library
  37:c:\program files\daisytoolchain\arm-none-eabi\include\c++\10.2.1\cmath **** //
  38:c:\program files\daisytoolchain\arm-none-eabi\include\c++\10.2.1\cmath **** 
  39:c:\program files\daisytoolchain\arm-none-eabi\include\c++\10.2.1\cmath **** #pragma GCC system_header
  40:c:\program files\daisytoolchain\arm-none-eabi\include\c++\10.2.1\cmath **** 
  41:c:\program files\daisytoolchain\arm-none-eabi\include\c++\10.2.1\cmath **** #include <bits/c++config.h>
  42:c:\program files\daisytoolchain\arm-none-eabi\include\c++\10.2.1\cmath **** #include <bits/cpp_type_traits.h>
  43:c:\program files\daisytoolchain\arm-none-eabi\include\c++\10.2.1\cmath **** #include <ext/type_traits.h>
  44:c:\program files\daisytoolchain\arm-none-eabi\include\c++\10.2.1\cmath **** #define _GLIBCXX_INCLUDE_NEXT_C_HEADERS
  45:c:\program files\daisytoolchain\arm-none-eabi\include\c++\10.2.1\cmath **** #include_next <math.h>
  46:c:\program files\daisytoolchain\arm-none-eabi\include\c++\10.2.1\cmath **** #undef _GLIBCXX_INCLUDE_NEXT_C_HEADERS
  47:c:\program files\daisytoolchain\arm-none-eabi\include\c++\10.2.1\cmath **** #include <bits/std_abs.h>
  48:c:\program files\daisytoolchain\arm-none-eabi\include\c++\10.2.1\cmath **** 
  49:c:\program files\daisytoolchain\arm-none-eabi\include\c++\10.2.1\cmath **** #ifndef _GLIBCXX_CMATH
  50:c:\program files\daisytoolchain\arm-none-eabi\include\c++\10.2.1\cmath **** #define _GLIBCXX_CMATH 1
  51:c:\program files\daisytoolchain\arm-none-eabi\include\c++\10.2.1\cmath **** 
  52:c:\program files\daisytoolchain\arm-none-eabi\include\c++\10.2.1\cmath **** // Get rid of those macros defined in <math.h> in lieu of real functions.
  53:c:\program files\daisytoolchain\arm-none-eabi\include\c++\10.2.1\cmath **** #undef div
  54:c:\program files\daisytoolchain\arm-none-eabi\include\c++\10.2.1\cmath **** #undef acos
  55:c:\program files\daisytoolchain\arm-none-eabi\include\c++\10.2.1\cmath **** #undef asin
  56:c:\program files\daisytoolchain\arm-none-eabi\include\c++\10.2.1\cmath **** #undef atan
  57:c:\program files\daisytoolchain\arm-none-eabi\include\c++\10.2.1\cmath **** #undef atan2
  58:c:\program files\daisytoolchain\arm-none-eabi\include\c++\10.2.1\cmath **** #undef ceil
  59:c:\program files\daisytoolchain\arm-none-eabi\include\c++\10.2.1\cmath **** #undef cos
  60:c:\program files\daisytoolchain\arm-none-eabi\include\c++\10.2.1\cmath **** #undef cosh
  61:c:\program files\daisytoolchain\arm-none-eabi\include\c++\10.2.1\cmath **** #undef exp
  62:c:\program files\daisytoolchain\arm-none-eabi\include\c++\10.2.1\cmath **** #undef fabs
  63:c:\program files\daisytoolchain\arm-none-eabi\include\c++\10.2.1\cmath **** #undef floor
  64:c:\program files\daisytoolchain\arm-none-eabi\include\c++\10.2.1\cmath **** #undef fmod
  65:c:\program files\daisytoolchain\arm-none-eabi\include\c++\10.2.1\cmath **** #undef frexp
  66:c:\program files\daisytoolchain\arm-none-eabi\include\c++\10.2.1\cmath **** #undef ldexp
  67:c:\program files\daisytoolchain\arm-none-eabi\include\c++\10.2.1\cmath **** #undef log
  68:c:\program files\daisytoolchain\arm-none-eabi\include\c++\10.2.1\cmath **** #undef log10
  69:c:\program files\daisytoolchain\arm-none-eabi\include\c++\10.2.1\cmath **** #undef modf
  70:c:\program files\daisytoolchain\arm-none-eabi\include\c++\10.2.1\cmath **** #undef pow
  71:c:\program files\daisytoolchain\arm-none-eabi\include\c++\10.2.1\cmath **** #undef sin
  72:c:\program files\daisytoolchain\arm-none-eabi\include\c++\10.2.1\cmath **** #undef sinh
  73:c:\program files\daisytoolchain\arm-none-eabi\include\c++\10.2.1\cmath **** #undef sqrt
  74:c:\program files\daisytoolchain\arm-none-eabi\include\c++\10.2.1\cmath **** #undef tan
  75:c:\program files\daisytoolchain\arm-none-eabi\include\c++\10.2.1\cmath **** #undef tanh
  76:c:\program files\daisytoolchain\arm-none-eabi\include\c++\10.2.1\cmath **** 
  77:c:\program files\daisytoolchain\arm-none-eabi\include\c++\10.2.1\cmath **** extern "C++"
  78:c:\program files\daisytoolchain\arm-none-eabi\include\c++\10.2.1\cmath **** {
  79:c:\program files\daisytoolchain\arm-none-eabi\include\c++\10.2.1\cmath **** namespace std _GLIBCXX_VISIBILITY(default)
  80:c:\program files\daisytoolchain\arm-none-eabi\include\c++\10.2.1\cmath **** {
  81:c:\program files\daisytoolchain\arm-none-eabi\include\c++\10.2.1\cmath **** _GLIBCXX_BEGIN_NAMESPACE_VERSION
  82:c:\program files\daisytoolchain\arm-none-eabi\include\c++\10.2.1\cmath **** 
  83:c:\program files\daisytoolchain\arm-none-eabi\include\c++\10.2.1\cmath ****   using ::acos;
  84:c:\program files\daisytoolchain\arm-none-eabi\include\c++\10.2.1\cmath **** 
  85:c:\program files\daisytoolchain\arm-none-eabi\include\c++\10.2.1\cmath **** #ifndef __CORRECT_ISO_CPP_MATH_H_PROTO
  86:c:\program files\daisytoolchain\arm-none-eabi\include\c++\10.2.1\cmath ****   inline _GLIBCXX_CONSTEXPR float
  87:c:\program files\daisytoolchain\arm-none-eabi\include\c++\10.2.1\cmath ****   acos(float __x)
  88:c:\program files\daisytoolchain\arm-none-eabi\include\c++\10.2.1\cmath ****   { return __builtin_acosf(__x); }
  89:c:\program files\daisytoolchain\arm-none-eabi\include\c++\10.2.1\cmath **** 
  90:c:\program files\daisytoolchain\arm-none-eabi\include\c++\10.2.1\cmath ****   inline _GLIBCXX_CONSTEXPR long double
  91:c:\program files\daisytoolchain\arm-none-eabi\include\c++\10.2.1\cmath ****   acos(long double __x)
ARM GAS  C:\Users\hahnm\AppData\Local\Temp\cc4Pvs9Z.s 			page 5


  92:c:\program files\daisytoolchain\arm-none-eabi\include\c++\10.2.1\cmath ****   { return __builtin_acosl(__x); }
  93:c:\program files\daisytoolchain\arm-none-eabi\include\c++\10.2.1\cmath **** #endif
  94:c:\program files\daisytoolchain\arm-none-eabi\include\c++\10.2.1\cmath **** 
  95:c:\program files\daisytoolchain\arm-none-eabi\include\c++\10.2.1\cmath ****   template<typename _Tp>
  96:c:\program files\daisytoolchain\arm-none-eabi\include\c++\10.2.1\cmath ****     inline _GLIBCXX_CONSTEXPR
  97:c:\program files\daisytoolchain\arm-none-eabi\include\c++\10.2.1\cmath ****     typename __gnu_cxx::__enable_if<__is_integer<_Tp>::__value, 
  98:c:\program files\daisytoolchain\arm-none-eabi\include\c++\10.2.1\cmath ****                                     double>::__type
  99:c:\program files\daisytoolchain\arm-none-eabi\include\c++\10.2.1\cmath ****     acos(_Tp __x)
 100:c:\program files\daisytoolchain\arm-none-eabi\include\c++\10.2.1\cmath ****     { return __builtin_acos(__x); }
 101:c:\program files\daisytoolchain\arm-none-eabi\include\c++\10.2.1\cmath **** 
 102:c:\program files\daisytoolchain\arm-none-eabi\include\c++\10.2.1\cmath ****   using ::asin;
 103:c:\program files\daisytoolchain\arm-none-eabi\include\c++\10.2.1\cmath **** 
 104:c:\program files\daisytoolchain\arm-none-eabi\include\c++\10.2.1\cmath **** #ifndef __CORRECT_ISO_CPP_MATH_H_PROTO
 105:c:\program files\daisytoolchain\arm-none-eabi\include\c++\10.2.1\cmath ****   inline _GLIBCXX_CONSTEXPR float
 106:c:\program files\daisytoolchain\arm-none-eabi\include\c++\10.2.1\cmath ****   asin(float __x)
 107:c:\program files\daisytoolchain\arm-none-eabi\include\c++\10.2.1\cmath ****   { return __builtin_asinf(__x); }
 108:c:\program files\daisytoolchain\arm-none-eabi\include\c++\10.2.1\cmath **** 
 109:c:\program files\daisytoolchain\arm-none-eabi\include\c++\10.2.1\cmath ****   inline _GLIBCXX_CONSTEXPR long double
 110:c:\program files\daisytoolchain\arm-none-eabi\include\c++\10.2.1\cmath ****   asin(long double __x)
 111:c:\program files\daisytoolchain\arm-none-eabi\include\c++\10.2.1\cmath ****   { return __builtin_asinl(__x); }
 112:c:\program files\daisytoolchain\arm-none-eabi\include\c++\10.2.1\cmath **** #endif
 113:c:\program files\daisytoolchain\arm-none-eabi\include\c++\10.2.1\cmath **** 
 114:c:\program files\daisytoolchain\arm-none-eabi\include\c++\10.2.1\cmath ****   template<typename _Tp>
 115:c:\program files\daisytoolchain\arm-none-eabi\include\c++\10.2.1\cmath ****     inline _GLIBCXX_CONSTEXPR
 116:c:\program files\daisytoolchain\arm-none-eabi\include\c++\10.2.1\cmath ****     typename __gnu_cxx::__enable_if<__is_integer<_Tp>::__value,
 117:c:\program files\daisytoolchain\arm-none-eabi\include\c++\10.2.1\cmath ****                                     double>::__type
 118:c:\program files\daisytoolchain\arm-none-eabi\include\c++\10.2.1\cmath ****     asin(_Tp __x)
 119:c:\program files\daisytoolchain\arm-none-eabi\include\c++\10.2.1\cmath ****     { return __builtin_asin(__x); }
 120:c:\program files\daisytoolchain\arm-none-eabi\include\c++\10.2.1\cmath **** 
 121:c:\program files\daisytoolchain\arm-none-eabi\include\c++\10.2.1\cmath ****   using ::atan;
 122:c:\program files\daisytoolchain\arm-none-eabi\include\c++\10.2.1\cmath **** 
 123:c:\program files\daisytoolchain\arm-none-eabi\include\c++\10.2.1\cmath **** #ifndef __CORRECT_ISO_CPP_MATH_H_PROTO
 124:c:\program files\daisytoolchain\arm-none-eabi\include\c++\10.2.1\cmath ****   inline _GLIBCXX_CONSTEXPR float
 125:c:\program files\daisytoolchain\arm-none-eabi\include\c++\10.2.1\cmath ****   atan(float __x)
 126:c:\program files\daisytoolchain\arm-none-eabi\include\c++\10.2.1\cmath ****   { return __builtin_atanf(__x); }
 127:c:\program files\daisytoolchain\arm-none-eabi\include\c++\10.2.1\cmath **** 
 128:c:\program files\daisytoolchain\arm-none-eabi\include\c++\10.2.1\cmath ****   inline _GLIBCXX_CONSTEXPR long double
 129:c:\program files\daisytoolchain\arm-none-eabi\include\c++\10.2.1\cmath ****   atan(long double __x)
 130:c:\program files\daisytoolchain\arm-none-eabi\include\c++\10.2.1\cmath ****   { return __builtin_atanl(__x); }
 131:c:\program files\daisytoolchain\arm-none-eabi\include\c++\10.2.1\cmath **** #endif
 132:c:\program files\daisytoolchain\arm-none-eabi\include\c++\10.2.1\cmath **** 
 133:c:\program files\daisytoolchain\arm-none-eabi\include\c++\10.2.1\cmath ****   template<typename _Tp>
 134:c:\program files\daisytoolchain\arm-none-eabi\include\c++\10.2.1\cmath ****     inline _GLIBCXX_CONSTEXPR
 135:c:\program files\daisytoolchain\arm-none-eabi\include\c++\10.2.1\cmath ****     typename __gnu_cxx::__enable_if<__is_integer<_Tp>::__value,
 136:c:\program files\daisytoolchain\arm-none-eabi\include\c++\10.2.1\cmath ****                                     double>::__type
 137:c:\program files\daisytoolchain\arm-none-eabi\include\c++\10.2.1\cmath ****     atan(_Tp __x)
 138:c:\program files\daisytoolchain\arm-none-eabi\include\c++\10.2.1\cmath ****     { return __builtin_atan(__x); }
 139:c:\program files\daisytoolchain\arm-none-eabi\include\c++\10.2.1\cmath **** 
 140:c:\program files\daisytoolchain\arm-none-eabi\include\c++\10.2.1\cmath ****   using ::atan2;
 141:c:\program files\daisytoolchain\arm-none-eabi\include\c++\10.2.1\cmath **** 
 142:c:\program files\daisytoolchain\arm-none-eabi\include\c++\10.2.1\cmath **** #ifndef __CORRECT_ISO_CPP_MATH_H_PROTO
 143:c:\program files\daisytoolchain\arm-none-eabi\include\c++\10.2.1\cmath ****   inline _GLIBCXX_CONSTEXPR float
 144:c:\program files\daisytoolchain\arm-none-eabi\include\c++\10.2.1\cmath ****   atan2(float __y, float __x)
 145:c:\program files\daisytoolchain\arm-none-eabi\include\c++\10.2.1\cmath ****   { return __builtin_atan2f(__y, __x); }
 146:c:\program files\daisytoolchain\arm-none-eabi\include\c++\10.2.1\cmath **** 
 147:c:\program files\daisytoolchain\arm-none-eabi\include\c++\10.2.1\cmath ****   inline _GLIBCXX_CONSTEXPR long double
 148:c:\program files\daisytoolchain\arm-none-eabi\include\c++\10.2.1\cmath ****   atan2(long double __y, long double __x)
ARM GAS  C:\Users\hahnm\AppData\Local\Temp\cc4Pvs9Z.s 			page 6


 149:c:\program files\daisytoolchain\arm-none-eabi\include\c++\10.2.1\cmath ****   { return __builtin_atan2l(__y, __x); }
 150:c:\program files\daisytoolchain\arm-none-eabi\include\c++\10.2.1\cmath **** #endif
 151:c:\program files\daisytoolchain\arm-none-eabi\include\c++\10.2.1\cmath **** 
 152:c:\program files\daisytoolchain\arm-none-eabi\include\c++\10.2.1\cmath ****   template<typename _Tp, typename _Up>
 153:c:\program files\daisytoolchain\arm-none-eabi\include\c++\10.2.1\cmath ****     inline _GLIBCXX_CONSTEXPR
 154:c:\program files\daisytoolchain\arm-none-eabi\include\c++\10.2.1\cmath ****     typename __gnu_cxx::__promote_2<_Tp, _Up>::__type
 155:c:\program files\daisytoolchain\arm-none-eabi\include\c++\10.2.1\cmath ****     atan2(_Tp __y, _Up __x)
 156:c:\program files\daisytoolchain\arm-none-eabi\include\c++\10.2.1\cmath ****     {
 157:c:\program files\daisytoolchain\arm-none-eabi\include\c++\10.2.1\cmath ****       typedef typename __gnu_cxx::__promote_2<_Tp, _Up>::__type __type;
 158:c:\program files\daisytoolchain\arm-none-eabi\include\c++\10.2.1\cmath ****       return atan2(__type(__y), __type(__x));
 159:c:\program files\daisytoolchain\arm-none-eabi\include\c++\10.2.1\cmath ****     }
 160:c:\program files\daisytoolchain\arm-none-eabi\include\c++\10.2.1\cmath **** 
 161:c:\program files\daisytoolchain\arm-none-eabi\include\c++\10.2.1\cmath ****   using ::ceil;
 162:c:\program files\daisytoolchain\arm-none-eabi\include\c++\10.2.1\cmath **** 
 163:c:\program files\daisytoolchain\arm-none-eabi\include\c++\10.2.1\cmath **** #ifndef __CORRECT_ISO_CPP_MATH_H_PROTO
 164:c:\program files\daisytoolchain\arm-none-eabi\include\c++\10.2.1\cmath ****   inline _GLIBCXX_CONSTEXPR float
 165:c:\program files\daisytoolchain\arm-none-eabi\include\c++\10.2.1\cmath ****   ceil(float __x)
 166:c:\program files\daisytoolchain\arm-none-eabi\include\c++\10.2.1\cmath ****   { return __builtin_ceilf(__x); }
 167:c:\program files\daisytoolchain\arm-none-eabi\include\c++\10.2.1\cmath **** 
 168:c:\program files\daisytoolchain\arm-none-eabi\include\c++\10.2.1\cmath ****   inline _GLIBCXX_CONSTEXPR long double
 169:c:\program files\daisytoolchain\arm-none-eabi\include\c++\10.2.1\cmath ****   ceil(long double __x)
 170:c:\program files\daisytoolchain\arm-none-eabi\include\c++\10.2.1\cmath ****   { return __builtin_ceill(__x); }
 171:c:\program files\daisytoolchain\arm-none-eabi\include\c++\10.2.1\cmath **** #endif
 172:c:\program files\daisytoolchain\arm-none-eabi\include\c++\10.2.1\cmath **** 
 173:c:\program files\daisytoolchain\arm-none-eabi\include\c++\10.2.1\cmath ****   template<typename _Tp>
 174:c:\program files\daisytoolchain\arm-none-eabi\include\c++\10.2.1\cmath ****     inline _GLIBCXX_CONSTEXPR
 175:c:\program files\daisytoolchain\arm-none-eabi\include\c++\10.2.1\cmath ****     typename __gnu_cxx::__enable_if<__is_integer<_Tp>::__value, 
 176:c:\program files\daisytoolchain\arm-none-eabi\include\c++\10.2.1\cmath ****                                     double>::__type
 177:c:\program files\daisytoolchain\arm-none-eabi\include\c++\10.2.1\cmath ****     ceil(_Tp __x)
 178:c:\program files\daisytoolchain\arm-none-eabi\include\c++\10.2.1\cmath ****     { return __builtin_ceil(__x); }
 179:c:\program files\daisytoolchain\arm-none-eabi\include\c++\10.2.1\cmath **** 
 180:c:\program files\daisytoolchain\arm-none-eabi\include\c++\10.2.1\cmath ****   using ::cos;
 181:c:\program files\daisytoolchain\arm-none-eabi\include\c++\10.2.1\cmath **** 
 182:c:\program files\daisytoolchain\arm-none-eabi\include\c++\10.2.1\cmath **** #ifndef __CORRECT_ISO_CPP_MATH_H_PROTO
 183:c:\program files\daisytoolchain\arm-none-eabi\include\c++\10.2.1\cmath ****   inline _GLIBCXX_CONSTEXPR float
 184:c:\program files\daisytoolchain\arm-none-eabi\include\c++\10.2.1\cmath ****   cos(float __x)
 185:c:\program files\daisytoolchain\arm-none-eabi\include\c++\10.2.1\cmath ****   { return __builtin_cosf(__x); }
 186:c:\program files\daisytoolchain\arm-none-eabi\include\c++\10.2.1\cmath **** 
 187:c:\program files\daisytoolchain\arm-none-eabi\include\c++\10.2.1\cmath ****   inline _GLIBCXX_CONSTEXPR long double
 188:c:\program files\daisytoolchain\arm-none-eabi\include\c++\10.2.1\cmath ****   cos(long double __x)
 189:c:\program files\daisytoolchain\arm-none-eabi\include\c++\10.2.1\cmath ****   { return __builtin_cosl(__x); }
 190:c:\program files\daisytoolchain\arm-none-eabi\include\c++\10.2.1\cmath **** #endif
 191:c:\program files\daisytoolchain\arm-none-eabi\include\c++\10.2.1\cmath **** 
 192:c:\program files\daisytoolchain\arm-none-eabi\include\c++\10.2.1\cmath ****   template<typename _Tp>
 193:c:\program files\daisytoolchain\arm-none-eabi\include\c++\10.2.1\cmath ****     inline _GLIBCXX_CONSTEXPR
 194:c:\program files\daisytoolchain\arm-none-eabi\include\c++\10.2.1\cmath ****     typename __gnu_cxx::__enable_if<__is_integer<_Tp>::__value,
 195:c:\program files\daisytoolchain\arm-none-eabi\include\c++\10.2.1\cmath ****                                     double>::__type
 196:c:\program files\daisytoolchain\arm-none-eabi\include\c++\10.2.1\cmath ****     cos(_Tp __x)
 197:c:\program files\daisytoolchain\arm-none-eabi\include\c++\10.2.1\cmath ****     { return __builtin_cos(__x); }
 198:c:\program files\daisytoolchain\arm-none-eabi\include\c++\10.2.1\cmath **** 
 199:c:\program files\daisytoolchain\arm-none-eabi\include\c++\10.2.1\cmath ****   using ::cosh;
 200:c:\program files\daisytoolchain\arm-none-eabi\include\c++\10.2.1\cmath **** 
 201:c:\program files\daisytoolchain\arm-none-eabi\include\c++\10.2.1\cmath **** #ifndef __CORRECT_ISO_CPP_MATH_H_PROTO
 202:c:\program files\daisytoolchain\arm-none-eabi\include\c++\10.2.1\cmath ****   inline _GLIBCXX_CONSTEXPR float
 203:c:\program files\daisytoolchain\arm-none-eabi\include\c++\10.2.1\cmath ****   cosh(float __x)
 204:c:\program files\daisytoolchain\arm-none-eabi\include\c++\10.2.1\cmath ****   { return __builtin_coshf(__x); }
 205:c:\program files\daisytoolchain\arm-none-eabi\include\c++\10.2.1\cmath **** 
ARM GAS  C:\Users\hahnm\AppData\Local\Temp\cc4Pvs9Z.s 			page 7


 206:c:\program files\daisytoolchain\arm-none-eabi\include\c++\10.2.1\cmath ****   inline _GLIBCXX_CONSTEXPR long double
 207:c:\program files\daisytoolchain\arm-none-eabi\include\c++\10.2.1\cmath ****   cosh(long double __x)
 208:c:\program files\daisytoolchain\arm-none-eabi\include\c++\10.2.1\cmath ****   { return __builtin_coshl(__x); }
 209:c:\program files\daisytoolchain\arm-none-eabi\include\c++\10.2.1\cmath **** #endif
 210:c:\program files\daisytoolchain\arm-none-eabi\include\c++\10.2.1\cmath **** 
 211:c:\program files\daisytoolchain\arm-none-eabi\include\c++\10.2.1\cmath ****   template<typename _Tp>
 212:c:\program files\daisytoolchain\arm-none-eabi\include\c++\10.2.1\cmath ****     inline _GLIBCXX_CONSTEXPR
 213:c:\program files\daisytoolchain\arm-none-eabi\include\c++\10.2.1\cmath ****     typename __gnu_cxx::__enable_if<__is_integer<_Tp>::__value,
 214:c:\program files\daisytoolchain\arm-none-eabi\include\c++\10.2.1\cmath ****                                     double>::__type
 215:c:\program files\daisytoolchain\arm-none-eabi\include\c++\10.2.1\cmath ****     cosh(_Tp __x)
 216:c:\program files\daisytoolchain\arm-none-eabi\include\c++\10.2.1\cmath ****     { return __builtin_cosh(__x); }
 217:c:\program files\daisytoolchain\arm-none-eabi\include\c++\10.2.1\cmath **** 
 218:c:\program files\daisytoolchain\arm-none-eabi\include\c++\10.2.1\cmath ****   using ::exp;
 219:c:\program files\daisytoolchain\arm-none-eabi\include\c++\10.2.1\cmath **** 
 220:c:\program files\daisytoolchain\arm-none-eabi\include\c++\10.2.1\cmath **** #ifndef __CORRECT_ISO_CPP_MATH_H_PROTO
 221:c:\program files\daisytoolchain\arm-none-eabi\include\c++\10.2.1\cmath ****   inline _GLIBCXX_CONSTEXPR float
 222:c:\program files\daisytoolchain\arm-none-eabi\include\c++\10.2.1\cmath ****   exp(float __x)
 223:c:\program files\daisytoolchain\arm-none-eabi\include\c++\10.2.1\cmath ****   { return __builtin_expf(__x); }
 224:c:\program files\daisytoolchain\arm-none-eabi\include\c++\10.2.1\cmath **** 
 225:c:\program files\daisytoolchain\arm-none-eabi\include\c++\10.2.1\cmath ****   inline _GLIBCXX_CONSTEXPR long double
 226:c:\program files\daisytoolchain\arm-none-eabi\include\c++\10.2.1\cmath ****   exp(long double __x)
 227:c:\program files\daisytoolchain\arm-none-eabi\include\c++\10.2.1\cmath ****   { return __builtin_expl(__x); }
 228:c:\program files\daisytoolchain\arm-none-eabi\include\c++\10.2.1\cmath **** #endif
 229:c:\program files\daisytoolchain\arm-none-eabi\include\c++\10.2.1\cmath **** 
 230:c:\program files\daisytoolchain\arm-none-eabi\include\c++\10.2.1\cmath ****   template<typename _Tp>
 231:c:\program files\daisytoolchain\arm-none-eabi\include\c++\10.2.1\cmath ****     inline _GLIBCXX_CONSTEXPR
 232:c:\program files\daisytoolchain\arm-none-eabi\include\c++\10.2.1\cmath ****     typename __gnu_cxx::__enable_if<__is_integer<_Tp>::__value,
 233:c:\program files\daisytoolchain\arm-none-eabi\include\c++\10.2.1\cmath ****                                     double>::__type
 234:c:\program files\daisytoolchain\arm-none-eabi\include\c++\10.2.1\cmath ****     exp(_Tp __x)
 235:c:\program files\daisytoolchain\arm-none-eabi\include\c++\10.2.1\cmath ****     { return __builtin_exp(__x); }
 236:c:\program files\daisytoolchain\arm-none-eabi\include\c++\10.2.1\cmath **** 
 237:c:\program files\daisytoolchain\arm-none-eabi\include\c++\10.2.1\cmath ****   using ::fabs;
 238:c:\program files\daisytoolchain\arm-none-eabi\include\c++\10.2.1\cmath **** 
 239:c:\program files\daisytoolchain\arm-none-eabi\include\c++\10.2.1\cmath **** #ifndef __CORRECT_ISO_CPP_MATH_H_PROTO
 240:c:\program files\daisytoolchain\arm-none-eabi\include\c++\10.2.1\cmath ****   inline _GLIBCXX_CONSTEXPR float
 241:c:\program files\daisytoolchain\arm-none-eabi\include\c++\10.2.1\cmath ****   fabs(float __x)
 242:c:\program files\daisytoolchain\arm-none-eabi\include\c++\10.2.1\cmath ****   { return __builtin_fabsf(__x); }
 243:c:\program files\daisytoolchain\arm-none-eabi\include\c++\10.2.1\cmath **** 
 244:c:\program files\daisytoolchain\arm-none-eabi\include\c++\10.2.1\cmath ****   inline _GLIBCXX_CONSTEXPR long double
 245:c:\program files\daisytoolchain\arm-none-eabi\include\c++\10.2.1\cmath ****   fabs(long double __x)
 246:c:\program files\daisytoolchain\arm-none-eabi\include\c++\10.2.1\cmath ****   { return __builtin_fabsl(__x); }
 247:c:\program files\daisytoolchain\arm-none-eabi\include\c++\10.2.1\cmath **** #endif
 248:c:\program files\daisytoolchain\arm-none-eabi\include\c++\10.2.1\cmath **** 
 249:c:\program files\daisytoolchain\arm-none-eabi\include\c++\10.2.1\cmath ****   template<typename _Tp>
 250:c:\program files\daisytoolchain\arm-none-eabi\include\c++\10.2.1\cmath ****     inline _GLIBCXX_CONSTEXPR
 251:c:\program files\daisytoolchain\arm-none-eabi\include\c++\10.2.1\cmath ****     typename __gnu_cxx::__enable_if<__is_integer<_Tp>::__value,
 252:c:\program files\daisytoolchain\arm-none-eabi\include\c++\10.2.1\cmath ****                                     double>::__type
 253:c:\program files\daisytoolchain\arm-none-eabi\include\c++\10.2.1\cmath ****     fabs(_Tp __x)
 254:c:\program files\daisytoolchain\arm-none-eabi\include\c++\10.2.1\cmath ****     { return __builtin_fabs(__x); }
 255:c:\program files\daisytoolchain\arm-none-eabi\include\c++\10.2.1\cmath **** 
 256:c:\program files\daisytoolchain\arm-none-eabi\include\c++\10.2.1\cmath ****   using ::floor;
 257:c:\program files\daisytoolchain\arm-none-eabi\include\c++\10.2.1\cmath **** 
 258:c:\program files\daisytoolchain\arm-none-eabi\include\c++\10.2.1\cmath **** #ifndef __CORRECT_ISO_CPP_MATH_H_PROTO
 259:c:\program files\daisytoolchain\arm-none-eabi\include\c++\10.2.1\cmath ****   inline _GLIBCXX_CONSTEXPR float
 260:c:\program files\daisytoolchain\arm-none-eabi\include\c++\10.2.1\cmath ****   floor(float __x)
 261:c:\program files\daisytoolchain\arm-none-eabi\include\c++\10.2.1\cmath ****   { return __builtin_floorf(__x); }
 262:c:\program files\daisytoolchain\arm-none-eabi\include\c++\10.2.1\cmath **** 
ARM GAS  C:\Users\hahnm\AppData\Local\Temp\cc4Pvs9Z.s 			page 8


 263:c:\program files\daisytoolchain\arm-none-eabi\include\c++\10.2.1\cmath ****   inline _GLIBCXX_CONSTEXPR long double
 264:c:\program files\daisytoolchain\arm-none-eabi\include\c++\10.2.1\cmath ****   floor(long double __x)
 265:c:\program files\daisytoolchain\arm-none-eabi\include\c++\10.2.1\cmath ****   { return __builtin_floorl(__x); }
 266:c:\program files\daisytoolchain\arm-none-eabi\include\c++\10.2.1\cmath **** #endif
 267:c:\program files\daisytoolchain\arm-none-eabi\include\c++\10.2.1\cmath **** 
 268:c:\program files\daisytoolchain\arm-none-eabi\include\c++\10.2.1\cmath ****   template<typename _Tp>
 269:c:\program files\daisytoolchain\arm-none-eabi\include\c++\10.2.1\cmath ****     inline _GLIBCXX_CONSTEXPR
 270:c:\program files\daisytoolchain\arm-none-eabi\include\c++\10.2.1\cmath ****     typename __gnu_cxx::__enable_if<__is_integer<_Tp>::__value,
 271:c:\program files\daisytoolchain\arm-none-eabi\include\c++\10.2.1\cmath ****                                     double>::__type
 272:c:\program files\daisytoolchain\arm-none-eabi\include\c++\10.2.1\cmath ****     floor(_Tp __x)
 273:c:\program files\daisytoolchain\arm-none-eabi\include\c++\10.2.1\cmath ****     { return __builtin_floor(__x); }
 274:c:\program files\daisytoolchain\arm-none-eabi\include\c++\10.2.1\cmath **** 
 275:c:\program files\daisytoolchain\arm-none-eabi\include\c++\10.2.1\cmath ****   using ::fmod;
 276:c:\program files\daisytoolchain\arm-none-eabi\include\c++\10.2.1\cmath **** 
 277:c:\program files\daisytoolchain\arm-none-eabi\include\c++\10.2.1\cmath **** #ifndef __CORRECT_ISO_CPP_MATH_H_PROTO
 278:c:\program files\daisytoolchain\arm-none-eabi\include\c++\10.2.1\cmath ****   inline _GLIBCXX_CONSTEXPR float
 279:c:\program files\daisytoolchain\arm-none-eabi\include\c++\10.2.1\cmath ****   fmod(float __x, float __y)
 280:c:\program files\daisytoolchain\arm-none-eabi\include\c++\10.2.1\cmath ****   { return __builtin_fmodf(__x, __y); }
 281:c:\program files\daisytoolchain\arm-none-eabi\include\c++\10.2.1\cmath **** 
 282:c:\program files\daisytoolchain\arm-none-eabi\include\c++\10.2.1\cmath ****   inline _GLIBCXX_CONSTEXPR long double
 283:c:\program files\daisytoolchain\arm-none-eabi\include\c++\10.2.1\cmath ****   fmod(long double __x, long double __y)
 284:c:\program files\daisytoolchain\arm-none-eabi\include\c++\10.2.1\cmath ****   { return __builtin_fmodl(__x, __y); }
 285:c:\program files\daisytoolchain\arm-none-eabi\include\c++\10.2.1\cmath **** #endif
 286:c:\program files\daisytoolchain\arm-none-eabi\include\c++\10.2.1\cmath **** 
 287:c:\program files\daisytoolchain\arm-none-eabi\include\c++\10.2.1\cmath ****   template<typename _Tp, typename _Up>
 288:c:\program files\daisytoolchain\arm-none-eabi\include\c++\10.2.1\cmath ****     inline _GLIBCXX_CONSTEXPR
 289:c:\program files\daisytoolchain\arm-none-eabi\include\c++\10.2.1\cmath ****     typename __gnu_cxx::__promote_2<_Tp, _Up>::__type
 290:c:\program files\daisytoolchain\arm-none-eabi\include\c++\10.2.1\cmath ****     fmod(_Tp __x, _Up __y)
 291:c:\program files\daisytoolchain\arm-none-eabi\include\c++\10.2.1\cmath ****     {
 292:c:\program files\daisytoolchain\arm-none-eabi\include\c++\10.2.1\cmath ****       typedef typename __gnu_cxx::__promote_2<_Tp, _Up>::__type __type;
 293:c:\program files\daisytoolchain\arm-none-eabi\include\c++\10.2.1\cmath ****       return fmod(__type(__x), __type(__y));
 294:c:\program files\daisytoolchain\arm-none-eabi\include\c++\10.2.1\cmath ****     }
 295:c:\program files\daisytoolchain\arm-none-eabi\include\c++\10.2.1\cmath **** 
 296:c:\program files\daisytoolchain\arm-none-eabi\include\c++\10.2.1\cmath ****   using ::frexp;
 297:c:\program files\daisytoolchain\arm-none-eabi\include\c++\10.2.1\cmath **** 
 298:c:\program files\daisytoolchain\arm-none-eabi\include\c++\10.2.1\cmath **** #ifndef __CORRECT_ISO_CPP_MATH_H_PROTO
 299:c:\program files\daisytoolchain\arm-none-eabi\include\c++\10.2.1\cmath ****   inline float
 300:c:\program files\daisytoolchain\arm-none-eabi\include\c++\10.2.1\cmath ****   frexp(float __x, int* __exp)
 301:c:\program files\daisytoolchain\arm-none-eabi\include\c++\10.2.1\cmath ****   { return __builtin_frexpf(__x, __exp); }
 302:c:\program files\daisytoolchain\arm-none-eabi\include\c++\10.2.1\cmath **** 
 303:c:\program files\daisytoolchain\arm-none-eabi\include\c++\10.2.1\cmath ****   inline long double
 304:c:\program files\daisytoolchain\arm-none-eabi\include\c++\10.2.1\cmath ****   frexp(long double __x, int* __exp)
 305:c:\program files\daisytoolchain\arm-none-eabi\include\c++\10.2.1\cmath ****   { return __builtin_frexpl(__x, __exp); }
 306:c:\program files\daisytoolchain\arm-none-eabi\include\c++\10.2.1\cmath **** #endif
 307:c:\program files\daisytoolchain\arm-none-eabi\include\c++\10.2.1\cmath **** 
 308:c:\program files\daisytoolchain\arm-none-eabi\include\c++\10.2.1\cmath ****   template<typename _Tp>
 309:c:\program files\daisytoolchain\arm-none-eabi\include\c++\10.2.1\cmath ****     inline _GLIBCXX_CONSTEXPR
 310:c:\program files\daisytoolchain\arm-none-eabi\include\c++\10.2.1\cmath ****     typename __gnu_cxx::__enable_if<__is_integer<_Tp>::__value, 
 311:c:\program files\daisytoolchain\arm-none-eabi\include\c++\10.2.1\cmath ****                                     double>::__type
 312:c:\program files\daisytoolchain\arm-none-eabi\include\c++\10.2.1\cmath ****     frexp(_Tp __x, int* __exp)
 313:c:\program files\daisytoolchain\arm-none-eabi\include\c++\10.2.1\cmath ****     { return __builtin_frexp(__x, __exp); }
 314:c:\program files\daisytoolchain\arm-none-eabi\include\c++\10.2.1\cmath **** 
 315:c:\program files\daisytoolchain\arm-none-eabi\include\c++\10.2.1\cmath ****   using ::ldexp;
 316:c:\program files\daisytoolchain\arm-none-eabi\include\c++\10.2.1\cmath **** 
 317:c:\program files\daisytoolchain\arm-none-eabi\include\c++\10.2.1\cmath **** #ifndef __CORRECT_ISO_CPP_MATH_H_PROTO
 318:c:\program files\daisytoolchain\arm-none-eabi\include\c++\10.2.1\cmath ****   inline _GLIBCXX_CONSTEXPR float
 319:c:\program files\daisytoolchain\arm-none-eabi\include\c++\10.2.1\cmath ****   ldexp(float __x, int __exp)
ARM GAS  C:\Users\hahnm\AppData\Local\Temp\cc4Pvs9Z.s 			page 9


 320:c:\program files\daisytoolchain\arm-none-eabi\include\c++\10.2.1\cmath ****   { return __builtin_ldexpf(__x, __exp); }
 321:c:\program files\daisytoolchain\arm-none-eabi\include\c++\10.2.1\cmath **** 
 322:c:\program files\daisytoolchain\arm-none-eabi\include\c++\10.2.1\cmath ****   inline _GLIBCXX_CONSTEXPR long double
 323:c:\program files\daisytoolchain\arm-none-eabi\include\c++\10.2.1\cmath ****   ldexp(long double __x, int __exp)
 324:c:\program files\daisytoolchain\arm-none-eabi\include\c++\10.2.1\cmath ****   { return __builtin_ldexpl(__x, __exp); }
 325:c:\program files\daisytoolchain\arm-none-eabi\include\c++\10.2.1\cmath **** #endif
 326:c:\program files\daisytoolchain\arm-none-eabi\include\c++\10.2.1\cmath **** 
 327:c:\program files\daisytoolchain\arm-none-eabi\include\c++\10.2.1\cmath ****   template<typename _Tp>
 328:c:\program files\daisytoolchain\arm-none-eabi\include\c++\10.2.1\cmath ****     inline _GLIBCXX_CONSTEXPR
 329:c:\program files\daisytoolchain\arm-none-eabi\include\c++\10.2.1\cmath ****     typename __gnu_cxx::__enable_if<__is_integer<_Tp>::__value, 
 330:c:\program files\daisytoolchain\arm-none-eabi\include\c++\10.2.1\cmath ****                                     double>::__type
 331:c:\program files\daisytoolchain\arm-none-eabi\include\c++\10.2.1\cmath ****     ldexp(_Tp __x, int __exp)
 332:c:\program files\daisytoolchain\arm-none-eabi\include\c++\10.2.1\cmath ****     { return __builtin_ldexp(__x, __exp); }
 333:c:\program files\daisytoolchain\arm-none-eabi\include\c++\10.2.1\cmath **** 
 334:c:\program files\daisytoolchain\arm-none-eabi\include\c++\10.2.1\cmath ****   using ::log;
 335:c:\program files\daisytoolchain\arm-none-eabi\include\c++\10.2.1\cmath **** 
 336:c:\program files\daisytoolchain\arm-none-eabi\include\c++\10.2.1\cmath **** #ifndef __CORRECT_ISO_CPP_MATH_H_PROTO
 337:c:\program files\daisytoolchain\arm-none-eabi\include\c++\10.2.1\cmath ****   inline _GLIBCXX_CONSTEXPR float
 338:c:\program files\daisytoolchain\arm-none-eabi\include\c++\10.2.1\cmath ****   log(float __x)
 339:c:\program files\daisytoolchain\arm-none-eabi\include\c++\10.2.1\cmath ****   { return __builtin_logf(__x); }
 340:c:\program files\daisytoolchain\arm-none-eabi\include\c++\10.2.1\cmath **** 
 341:c:\program files\daisytoolchain\arm-none-eabi\include\c++\10.2.1\cmath ****   inline _GLIBCXX_CONSTEXPR long double
 342:c:\program files\daisytoolchain\arm-none-eabi\include\c++\10.2.1\cmath ****   log(long double __x)
 343:c:\program files\daisytoolchain\arm-none-eabi\include\c++\10.2.1\cmath ****   { return __builtin_logl(__x); }
 344:c:\program files\daisytoolchain\arm-none-eabi\include\c++\10.2.1\cmath **** #endif
 345:c:\program files\daisytoolchain\arm-none-eabi\include\c++\10.2.1\cmath **** 
 346:c:\program files\daisytoolchain\arm-none-eabi\include\c++\10.2.1\cmath ****   template<typename _Tp>
 347:c:\program files\daisytoolchain\arm-none-eabi\include\c++\10.2.1\cmath ****     inline _GLIBCXX_CONSTEXPR
 348:c:\program files\daisytoolchain\arm-none-eabi\include\c++\10.2.1\cmath ****     typename __gnu_cxx::__enable_if<__is_integer<_Tp>::__value, 
 349:c:\program files\daisytoolchain\arm-none-eabi\include\c++\10.2.1\cmath ****                                     double>::__type
 350:c:\program files\daisytoolchain\arm-none-eabi\include\c++\10.2.1\cmath ****     log(_Tp __x)
 351:c:\program files\daisytoolchain\arm-none-eabi\include\c++\10.2.1\cmath ****     { return __builtin_log(__x); }
 352:c:\program files\daisytoolchain\arm-none-eabi\include\c++\10.2.1\cmath **** 
 353:c:\program files\daisytoolchain\arm-none-eabi\include\c++\10.2.1\cmath ****   using ::log10;
 354:c:\program files\daisytoolchain\arm-none-eabi\include\c++\10.2.1\cmath **** 
 355:c:\program files\daisytoolchain\arm-none-eabi\include\c++\10.2.1\cmath **** #ifndef __CORRECT_ISO_CPP_MATH_H_PROTO
 356:c:\program files\daisytoolchain\arm-none-eabi\include\c++\10.2.1\cmath ****   inline _GLIBCXX_CONSTEXPR float
 357:c:\program files\daisytoolchain\arm-none-eabi\include\c++\10.2.1\cmath ****   log10(float __x)
 358:c:\program files\daisytoolchain\arm-none-eabi\include\c++\10.2.1\cmath ****   { return __builtin_log10f(__x); }
 359:c:\program files\daisytoolchain\arm-none-eabi\include\c++\10.2.1\cmath **** 
 360:c:\program files\daisytoolchain\arm-none-eabi\include\c++\10.2.1\cmath ****   inline _GLIBCXX_CONSTEXPR long double
 361:c:\program files\daisytoolchain\arm-none-eabi\include\c++\10.2.1\cmath ****   log10(long double __x)
 362:c:\program files\daisytoolchain\arm-none-eabi\include\c++\10.2.1\cmath ****   { return __builtin_log10l(__x); }
 363:c:\program files\daisytoolchain\arm-none-eabi\include\c++\10.2.1\cmath **** #endif
 364:c:\program files\daisytoolchain\arm-none-eabi\include\c++\10.2.1\cmath **** 
 365:c:\program files\daisytoolchain\arm-none-eabi\include\c++\10.2.1\cmath ****   template<typename _Tp>
 366:c:\program files\daisytoolchain\arm-none-eabi\include\c++\10.2.1\cmath ****     inline _GLIBCXX_CONSTEXPR
 367:c:\program files\daisytoolchain\arm-none-eabi\include\c++\10.2.1\cmath ****     typename __gnu_cxx::__enable_if<__is_integer<_Tp>::__value,
 368:c:\program files\daisytoolchain\arm-none-eabi\include\c++\10.2.1\cmath ****                                     double>::__type
 369:c:\program files\daisytoolchain\arm-none-eabi\include\c++\10.2.1\cmath ****     log10(_Tp __x)
 370:c:\program files\daisytoolchain\arm-none-eabi\include\c++\10.2.1\cmath ****     { return __builtin_log10(__x); }
 371:c:\program files\daisytoolchain\arm-none-eabi\include\c++\10.2.1\cmath **** 
 372:c:\program files\daisytoolchain\arm-none-eabi\include\c++\10.2.1\cmath ****   using ::modf;
 373:c:\program files\daisytoolchain\arm-none-eabi\include\c++\10.2.1\cmath **** 
 374:c:\program files\daisytoolchain\arm-none-eabi\include\c++\10.2.1\cmath **** #ifndef __CORRECT_ISO_CPP_MATH_H_PROTO
 375:c:\program files\daisytoolchain\arm-none-eabi\include\c++\10.2.1\cmath ****   inline float
 376:c:\program files\daisytoolchain\arm-none-eabi\include\c++\10.2.1\cmath ****   modf(float __x, float* __iptr)
ARM GAS  C:\Users\hahnm\AppData\Local\Temp\cc4Pvs9Z.s 			page 10


 377:c:\program files\daisytoolchain\arm-none-eabi\include\c++\10.2.1\cmath ****   { return __builtin_modff(__x, __iptr); }
 378:c:\program files\daisytoolchain\arm-none-eabi\include\c++\10.2.1\cmath **** 
 379:c:\program files\daisytoolchain\arm-none-eabi\include\c++\10.2.1\cmath ****   inline long double
 380:c:\program files\daisytoolchain\arm-none-eabi\include\c++\10.2.1\cmath ****   modf(long double __x, long double* __iptr)
 381:c:\program files\daisytoolchain\arm-none-eabi\include\c++\10.2.1\cmath ****   { return __builtin_modfl(__x, __iptr); }
 382:c:\program files\daisytoolchain\arm-none-eabi\include\c++\10.2.1\cmath **** #endif
 383:c:\program files\daisytoolchain\arm-none-eabi\include\c++\10.2.1\cmath **** 
 384:c:\program files\daisytoolchain\arm-none-eabi\include\c++\10.2.1\cmath ****   using ::pow;
 385:c:\program files\daisytoolchain\arm-none-eabi\include\c++\10.2.1\cmath **** 
 386:c:\program files\daisytoolchain\arm-none-eabi\include\c++\10.2.1\cmath **** #ifndef __CORRECT_ISO_CPP_MATH_H_PROTO
 387:c:\program files\daisytoolchain\arm-none-eabi\include\c++\10.2.1\cmath ****   inline _GLIBCXX_CONSTEXPR float
 388:c:\program files\daisytoolchain\arm-none-eabi\include\c++\10.2.1\cmath ****   pow(float __x, float __y)
 389:c:\program files\daisytoolchain\arm-none-eabi\include\c++\10.2.1\cmath ****   { return __builtin_powf(__x, __y); }
 390:c:\program files\daisytoolchain\arm-none-eabi\include\c++\10.2.1\cmath **** 
 391:c:\program files\daisytoolchain\arm-none-eabi\include\c++\10.2.1\cmath ****   inline _GLIBCXX_CONSTEXPR long double
 392:c:\program files\daisytoolchain\arm-none-eabi\include\c++\10.2.1\cmath ****   pow(long double __x, long double __y)
 393:c:\program files\daisytoolchain\arm-none-eabi\include\c++\10.2.1\cmath ****   { return __builtin_powl(__x, __y); }
 394:c:\program files\daisytoolchain\arm-none-eabi\include\c++\10.2.1\cmath **** 
 395:c:\program files\daisytoolchain\arm-none-eabi\include\c++\10.2.1\cmath **** #if __cplusplus < 201103L
 396:c:\program files\daisytoolchain\arm-none-eabi\include\c++\10.2.1\cmath ****   // _GLIBCXX_RESOLVE_LIB_DEFECTS
 397:c:\program files\daisytoolchain\arm-none-eabi\include\c++\10.2.1\cmath ****   // DR 550. What should the return type of pow(float,int) be?
 398:c:\program files\daisytoolchain\arm-none-eabi\include\c++\10.2.1\cmath ****   inline double
 399:c:\program files\daisytoolchain\arm-none-eabi\include\c++\10.2.1\cmath ****   pow(double __x, int __i)
 400:c:\program files\daisytoolchain\arm-none-eabi\include\c++\10.2.1\cmath ****   { return __builtin_powi(__x, __i); }
 401:c:\program files\daisytoolchain\arm-none-eabi\include\c++\10.2.1\cmath **** 
 402:c:\program files\daisytoolchain\arm-none-eabi\include\c++\10.2.1\cmath ****   inline float
 403:c:\program files\daisytoolchain\arm-none-eabi\include\c++\10.2.1\cmath ****   pow(float __x, int __n)
 404:c:\program files\daisytoolchain\arm-none-eabi\include\c++\10.2.1\cmath ****   { return __builtin_powif(__x, __n); }
 405:c:\program files\daisytoolchain\arm-none-eabi\include\c++\10.2.1\cmath **** 
 406:c:\program files\daisytoolchain\arm-none-eabi\include\c++\10.2.1\cmath ****   inline long double
 407:c:\program files\daisytoolchain\arm-none-eabi\include\c++\10.2.1\cmath ****   pow(long double __x, int __n)
 408:c:\program files\daisytoolchain\arm-none-eabi\include\c++\10.2.1\cmath ****   { return __builtin_powil(__x, __n); }
 409:c:\program files\daisytoolchain\arm-none-eabi\include\c++\10.2.1\cmath **** #endif
 410:c:\program files\daisytoolchain\arm-none-eabi\include\c++\10.2.1\cmath **** #endif
 411:c:\program files\daisytoolchain\arm-none-eabi\include\c++\10.2.1\cmath **** 
 412:c:\program files\daisytoolchain\arm-none-eabi\include\c++\10.2.1\cmath ****   template<typename _Tp, typename _Up>
 413:c:\program files\daisytoolchain\arm-none-eabi\include\c++\10.2.1\cmath ****     inline _GLIBCXX_CONSTEXPR
 414:c:\program files\daisytoolchain\arm-none-eabi\include\c++\10.2.1\cmath ****     typename __gnu_cxx::__promote_2<_Tp, _Up>::__type
 415:c:\program files\daisytoolchain\arm-none-eabi\include\c++\10.2.1\cmath ****     pow(_Tp __x, _Up __y)
 416:c:\program files\daisytoolchain\arm-none-eabi\include\c++\10.2.1\cmath ****     {
 417:c:\program files\daisytoolchain\arm-none-eabi\include\c++\10.2.1\cmath ****       typedef typename __gnu_cxx::__promote_2<_Tp, _Up>::__type __type;
 418:c:\program files\daisytoolchain\arm-none-eabi\include\c++\10.2.1\cmath ****       return pow(__type(__x), __type(__y));
 419:c:\program files\daisytoolchain\arm-none-eabi\include\c++\10.2.1\cmath ****     }
 420:c:\program files\daisytoolchain\arm-none-eabi\include\c++\10.2.1\cmath **** 
 421:c:\program files\daisytoolchain\arm-none-eabi\include\c++\10.2.1\cmath ****   using ::sin;
 422:c:\program files\daisytoolchain\arm-none-eabi\include\c++\10.2.1\cmath **** 
 423:c:\program files\daisytoolchain\arm-none-eabi\include\c++\10.2.1\cmath **** #ifndef __CORRECT_ISO_CPP_MATH_H_PROTO
 424:c:\program files\daisytoolchain\arm-none-eabi\include\c++\10.2.1\cmath ****   inline _GLIBCXX_CONSTEXPR float
 425:c:\program files\daisytoolchain\arm-none-eabi\include\c++\10.2.1\cmath ****   sin(float __x)
 426:c:\program files\daisytoolchain\arm-none-eabi\include\c++\10.2.1\cmath ****   { return __builtin_sinf(__x); }
 427:c:\program files\daisytoolchain\arm-none-eabi\include\c++\10.2.1\cmath **** 
 428:c:\program files\daisytoolchain\arm-none-eabi\include\c++\10.2.1\cmath ****   inline _GLIBCXX_CONSTEXPR long double
 429:c:\program files\daisytoolchain\arm-none-eabi\include\c++\10.2.1\cmath ****   sin(long double __x)
 430:c:\program files\daisytoolchain\arm-none-eabi\include\c++\10.2.1\cmath ****   { return __builtin_sinl(__x); }
 431:c:\program files\daisytoolchain\arm-none-eabi\include\c++\10.2.1\cmath **** #endif
 432:c:\program files\daisytoolchain\arm-none-eabi\include\c++\10.2.1\cmath **** 
 433:c:\program files\daisytoolchain\arm-none-eabi\include\c++\10.2.1\cmath ****   template<typename _Tp>
ARM GAS  C:\Users\hahnm\AppData\Local\Temp\cc4Pvs9Z.s 			page 11


 434:c:\program files\daisytoolchain\arm-none-eabi\include\c++\10.2.1\cmath ****     inline _GLIBCXX_CONSTEXPR
 435:c:\program files\daisytoolchain\arm-none-eabi\include\c++\10.2.1\cmath ****     typename __gnu_cxx::__enable_if<__is_integer<_Tp>::__value, 
 436:c:\program files\daisytoolchain\arm-none-eabi\include\c++\10.2.1\cmath ****                                     double>::__type
 437:c:\program files\daisytoolchain\arm-none-eabi\include\c++\10.2.1\cmath ****     sin(_Tp __x)
 438:c:\program files\daisytoolchain\arm-none-eabi\include\c++\10.2.1\cmath ****     { return __builtin_sin(__x); }
 439:c:\program files\daisytoolchain\arm-none-eabi\include\c++\10.2.1\cmath **** 
 440:c:\program files\daisytoolchain\arm-none-eabi\include\c++\10.2.1\cmath ****   using ::sinh;
 441:c:\program files\daisytoolchain\arm-none-eabi\include\c++\10.2.1\cmath **** 
 442:c:\program files\daisytoolchain\arm-none-eabi\include\c++\10.2.1\cmath **** #ifndef __CORRECT_ISO_CPP_MATH_H_PROTO
 443:c:\program files\daisytoolchain\arm-none-eabi\include\c++\10.2.1\cmath ****   inline _GLIBCXX_CONSTEXPR float
 444:c:\program files\daisytoolchain\arm-none-eabi\include\c++\10.2.1\cmath ****   sinh(float __x)
 445:c:\program files\daisytoolchain\arm-none-eabi\include\c++\10.2.1\cmath ****   { return __builtin_sinhf(__x); }
 446:c:\program files\daisytoolchain\arm-none-eabi\include\c++\10.2.1\cmath **** 
 447:c:\program files\daisytoolchain\arm-none-eabi\include\c++\10.2.1\cmath ****   inline _GLIBCXX_CONSTEXPR long double
 448:c:\program files\daisytoolchain\arm-none-eabi\include\c++\10.2.1\cmath ****   sinh(long double __x)
 449:c:\program files\daisytoolchain\arm-none-eabi\include\c++\10.2.1\cmath ****   { return __builtin_sinhl(__x); }
 450:c:\program files\daisytoolchain\arm-none-eabi\include\c++\10.2.1\cmath **** #endif
 451:c:\program files\daisytoolchain\arm-none-eabi\include\c++\10.2.1\cmath **** 
 452:c:\program files\daisytoolchain\arm-none-eabi\include\c++\10.2.1\cmath ****   template<typename _Tp>
 453:c:\program files\daisytoolchain\arm-none-eabi\include\c++\10.2.1\cmath ****     inline _GLIBCXX_CONSTEXPR
 454:c:\program files\daisytoolchain\arm-none-eabi\include\c++\10.2.1\cmath ****     typename __gnu_cxx::__enable_if<__is_integer<_Tp>::__value, 
 455:c:\program files\daisytoolchain\arm-none-eabi\include\c++\10.2.1\cmath ****                                     double>::__type
 456:c:\program files\daisytoolchain\arm-none-eabi\include\c++\10.2.1\cmath ****     sinh(_Tp __x)
 457:c:\program files\daisytoolchain\arm-none-eabi\include\c++\10.2.1\cmath ****     { return __builtin_sinh(__x); }
 458:c:\program files\daisytoolchain\arm-none-eabi\include\c++\10.2.1\cmath **** 
 459:c:\program files\daisytoolchain\arm-none-eabi\include\c++\10.2.1\cmath ****   using ::sqrt;
 460:c:\program files\daisytoolchain\arm-none-eabi\include\c++\10.2.1\cmath **** 
 461:c:\program files\daisytoolchain\arm-none-eabi\include\c++\10.2.1\cmath **** #ifndef __CORRECT_ISO_CPP_MATH_H_PROTO
 462:c:\program files\daisytoolchain\arm-none-eabi\include\c++\10.2.1\cmath ****   inline _GLIBCXX_CONSTEXPR float
 463:c:\program files\daisytoolchain\arm-none-eabi\include\c++\10.2.1\cmath ****   sqrt(float __x)
 464:c:\program files\daisytoolchain\arm-none-eabi\include\c++\10.2.1\cmath ****   { return __builtin_sqrtf(__x); }
 465:c:\program files\daisytoolchain\arm-none-eabi\include\c++\10.2.1\cmath **** 
 466:c:\program files\daisytoolchain\arm-none-eabi\include\c++\10.2.1\cmath ****   inline _GLIBCXX_CONSTEXPR long double
 467:c:\program files\daisytoolchain\arm-none-eabi\include\c++\10.2.1\cmath ****   sqrt(long double __x)
 468:c:\program files\daisytoolchain\arm-none-eabi\include\c++\10.2.1\cmath ****   { return __builtin_sqrtl(__x); }
 469:c:\program files\daisytoolchain\arm-none-eabi\include\c++\10.2.1\cmath **** #endif
 470:c:\program files\daisytoolchain\arm-none-eabi\include\c++\10.2.1\cmath **** 
 471:c:\program files\daisytoolchain\arm-none-eabi\include\c++\10.2.1\cmath ****   template<typename _Tp>
 472:c:\program files\daisytoolchain\arm-none-eabi\include\c++\10.2.1\cmath ****     inline _GLIBCXX_CONSTEXPR
 473:c:\program files\daisytoolchain\arm-none-eabi\include\c++\10.2.1\cmath ****     typename __gnu_cxx::__enable_if<__is_integer<_Tp>::__value, 
 474:c:\program files\daisytoolchain\arm-none-eabi\include\c++\10.2.1\cmath ****                                     double>::__type
 475:c:\program files\daisytoolchain\arm-none-eabi\include\c++\10.2.1\cmath ****     sqrt(_Tp __x)
 476:c:\program files\daisytoolchain\arm-none-eabi\include\c++\10.2.1\cmath ****     { return __builtin_sqrt(__x); }
 477:c:\program files\daisytoolchain\arm-none-eabi\include\c++\10.2.1\cmath **** 
 478:c:\program files\daisytoolchain\arm-none-eabi\include\c++\10.2.1\cmath ****   using ::tan;
 479:c:\program files\daisytoolchain\arm-none-eabi\include\c++\10.2.1\cmath **** 
 480:c:\program files\daisytoolchain\arm-none-eabi\include\c++\10.2.1\cmath **** #ifndef __CORRECT_ISO_CPP_MATH_H_PROTO
 481:c:\program files\daisytoolchain\arm-none-eabi\include\c++\10.2.1\cmath ****   inline _GLIBCXX_CONSTEXPR float
 482:c:\program files\daisytoolchain\arm-none-eabi\include\c++\10.2.1\cmath ****   tan(float __x)
 483:c:\program files\daisytoolchain\arm-none-eabi\include\c++\10.2.1\cmath ****   { return __builtin_tanf(__x); }
 484:c:\program files\daisytoolchain\arm-none-eabi\include\c++\10.2.1\cmath **** 
 485:c:\program files\daisytoolchain\arm-none-eabi\include\c++\10.2.1\cmath ****   inline _GLIBCXX_CONSTEXPR long double
 486:c:\program files\daisytoolchain\arm-none-eabi\include\c++\10.2.1\cmath ****   tan(long double __x)
 487:c:\program files\daisytoolchain\arm-none-eabi\include\c++\10.2.1\cmath ****   { return __builtin_tanl(__x); }
 488:c:\program files\daisytoolchain\arm-none-eabi\include\c++\10.2.1\cmath **** #endif
 489:c:\program files\daisytoolchain\arm-none-eabi\include\c++\10.2.1\cmath **** 
 490:c:\program files\daisytoolchain\arm-none-eabi\include\c++\10.2.1\cmath ****   template<typename _Tp>
ARM GAS  C:\Users\hahnm\AppData\Local\Temp\cc4Pvs9Z.s 			page 12


 491:c:\program files\daisytoolchain\arm-none-eabi\include\c++\10.2.1\cmath ****     inline _GLIBCXX_CONSTEXPR
 492:c:\program files\daisytoolchain\arm-none-eabi\include\c++\10.2.1\cmath ****     typename __gnu_cxx::__enable_if<__is_integer<_Tp>::__value, 
 493:c:\program files\daisytoolchain\arm-none-eabi\include\c++\10.2.1\cmath ****                                     double>::__type
 494:c:\program files\daisytoolchain\arm-none-eabi\include\c++\10.2.1\cmath ****     tan(_Tp __x)
 495:c:\program files\daisytoolchain\arm-none-eabi\include\c++\10.2.1\cmath ****     { return __builtin_tan(__x); }
 496:c:\program files\daisytoolchain\arm-none-eabi\include\c++\10.2.1\cmath **** 
 497:c:\program files\daisytoolchain\arm-none-eabi\include\c++\10.2.1\cmath ****   using ::tanh;
 498:c:\program files\daisytoolchain\arm-none-eabi\include\c++\10.2.1\cmath **** 
 499:c:\program files\daisytoolchain\arm-none-eabi\include\c++\10.2.1\cmath **** #ifndef __CORRECT_ISO_CPP_MATH_H_PROTO
 500:c:\program files\daisytoolchain\arm-none-eabi\include\c++\10.2.1\cmath ****   inline _GLIBCXX_CONSTEXPR float
 501:c:\program files\daisytoolchain\arm-none-eabi\include\c++\10.2.1\cmath ****   tanh(float __x)
 502:c:\program files\daisytoolchain\arm-none-eabi\include\c++\10.2.1\cmath ****   { return __builtin_tanhf(__x); }
 503:c:\program files\daisytoolchain\arm-none-eabi\include\c++\10.2.1\cmath **** 
 504:c:\program files\daisytoolchain\arm-none-eabi\include\c++\10.2.1\cmath ****   inline _GLIBCXX_CONSTEXPR long double
 505:c:\program files\daisytoolchain\arm-none-eabi\include\c++\10.2.1\cmath ****   tanh(long double __x)
 506:c:\program files\daisytoolchain\arm-none-eabi\include\c++\10.2.1\cmath ****   { return __builtin_tanhl(__x); }
 507:c:\program files\daisytoolchain\arm-none-eabi\include\c++\10.2.1\cmath **** #endif
 508:c:\program files\daisytoolchain\arm-none-eabi\include\c++\10.2.1\cmath **** 
 509:c:\program files\daisytoolchain\arm-none-eabi\include\c++\10.2.1\cmath ****   template<typename _Tp>
 510:c:\program files\daisytoolchain\arm-none-eabi\include\c++\10.2.1\cmath ****     inline _GLIBCXX_CONSTEXPR
 511:c:\program files\daisytoolchain\arm-none-eabi\include\c++\10.2.1\cmath ****     typename __gnu_cxx::__enable_if<__is_integer<_Tp>::__value, 
 512:c:\program files\daisytoolchain\arm-none-eabi\include\c++\10.2.1\cmath ****                                     double>::__type
 513:c:\program files\daisytoolchain\arm-none-eabi\include\c++\10.2.1\cmath ****     tanh(_Tp __x)
 514:c:\program files\daisytoolchain\arm-none-eabi\include\c++\10.2.1\cmath ****     { return __builtin_tanh(__x); }
 515:c:\program files\daisytoolchain\arm-none-eabi\include\c++\10.2.1\cmath **** 
 516:c:\program files\daisytoolchain\arm-none-eabi\include\c++\10.2.1\cmath **** #if _GLIBCXX_USE_C99_MATH
 517:c:\program files\daisytoolchain\arm-none-eabi\include\c++\10.2.1\cmath **** #if !_GLIBCXX_USE_C99_FP_MACROS_DYNAMIC
 518:c:\program files\daisytoolchain\arm-none-eabi\include\c++\10.2.1\cmath **** 
 519:c:\program files\daisytoolchain\arm-none-eabi\include\c++\10.2.1\cmath **** // These are possible macros imported from C99-land.
 520:c:\program files\daisytoolchain\arm-none-eabi\include\c++\10.2.1\cmath **** #undef fpclassify
 521:c:\program files\daisytoolchain\arm-none-eabi\include\c++\10.2.1\cmath **** #undef isfinite
 522:c:\program files\daisytoolchain\arm-none-eabi\include\c++\10.2.1\cmath **** #undef isinf
 523:c:\program files\daisytoolchain\arm-none-eabi\include\c++\10.2.1\cmath **** #undef isnan
 524:c:\program files\daisytoolchain\arm-none-eabi\include\c++\10.2.1\cmath **** #undef isnormal
 525:c:\program files\daisytoolchain\arm-none-eabi\include\c++\10.2.1\cmath **** #undef signbit
 526:c:\program files\daisytoolchain\arm-none-eabi\include\c++\10.2.1\cmath **** #undef isgreater
 527:c:\program files\daisytoolchain\arm-none-eabi\include\c++\10.2.1\cmath **** #undef isgreaterequal
 528:c:\program files\daisytoolchain\arm-none-eabi\include\c++\10.2.1\cmath **** #undef isless
 529:c:\program files\daisytoolchain\arm-none-eabi\include\c++\10.2.1\cmath **** #undef islessequal
 530:c:\program files\daisytoolchain\arm-none-eabi\include\c++\10.2.1\cmath **** #undef islessgreater
 531:c:\program files\daisytoolchain\arm-none-eabi\include\c++\10.2.1\cmath **** #undef isunordered
 532:c:\program files\daisytoolchain\arm-none-eabi\include\c++\10.2.1\cmath **** 
 533:c:\program files\daisytoolchain\arm-none-eabi\include\c++\10.2.1\cmath **** #if __cplusplus >= 201103L
 534:c:\program files\daisytoolchain\arm-none-eabi\include\c++\10.2.1\cmath **** 
 535:c:\program files\daisytoolchain\arm-none-eabi\include\c++\10.2.1\cmath **** #ifndef __CORRECT_ISO_CPP11_MATH_H_PROTO_FP
 536:c:\program files\daisytoolchain\arm-none-eabi\include\c++\10.2.1\cmath ****   constexpr int
 537:c:\program files\daisytoolchain\arm-none-eabi\include\c++\10.2.1\cmath ****   fpclassify(float __x)
 538:c:\program files\daisytoolchain\arm-none-eabi\include\c++\10.2.1\cmath ****   { return __builtin_fpclassify(FP_NAN, FP_INFINITE, FP_NORMAL,
 539:c:\program files\daisytoolchain\arm-none-eabi\include\c++\10.2.1\cmath **** 				FP_SUBNORMAL, FP_ZERO, __x); }
 540:c:\program files\daisytoolchain\arm-none-eabi\include\c++\10.2.1\cmath **** 
 541:c:\program files\daisytoolchain\arm-none-eabi\include\c++\10.2.1\cmath ****   constexpr int
 542:c:\program files\daisytoolchain\arm-none-eabi\include\c++\10.2.1\cmath ****   fpclassify(double __x)
 543:c:\program files\daisytoolchain\arm-none-eabi\include\c++\10.2.1\cmath ****   { return __builtin_fpclassify(FP_NAN, FP_INFINITE, FP_NORMAL,
 544:c:\program files\daisytoolchain\arm-none-eabi\include\c++\10.2.1\cmath **** 				FP_SUBNORMAL, FP_ZERO, __x); }
 545:c:\program files\daisytoolchain\arm-none-eabi\include\c++\10.2.1\cmath **** 
 546:c:\program files\daisytoolchain\arm-none-eabi\include\c++\10.2.1\cmath ****   constexpr int
 547:c:\program files\daisytoolchain\arm-none-eabi\include\c++\10.2.1\cmath ****   fpclassify(long double __x)
ARM GAS  C:\Users\hahnm\AppData\Local\Temp\cc4Pvs9Z.s 			page 13


 548:c:\program files\daisytoolchain\arm-none-eabi\include\c++\10.2.1\cmath ****   { return __builtin_fpclassify(FP_NAN, FP_INFINITE, FP_NORMAL,
 549:c:\program files\daisytoolchain\arm-none-eabi\include\c++\10.2.1\cmath **** 				FP_SUBNORMAL, FP_ZERO, __x); }
 550:c:\program files\daisytoolchain\arm-none-eabi\include\c++\10.2.1\cmath **** #endif
 551:c:\program files\daisytoolchain\arm-none-eabi\include\c++\10.2.1\cmath **** 
 552:c:\program files\daisytoolchain\arm-none-eabi\include\c++\10.2.1\cmath **** #ifndef __CORRECT_ISO_CPP11_MATH_H_PROTO_INT
 553:c:\program files\daisytoolchain\arm-none-eabi\include\c++\10.2.1\cmath ****   template<typename _Tp>
 554:c:\program files\daisytoolchain\arm-none-eabi\include\c++\10.2.1\cmath ****     constexpr typename __gnu_cxx::__enable_if<__is_integer<_Tp>::__value,
 555:c:\program files\daisytoolchain\arm-none-eabi\include\c++\10.2.1\cmath ****                                               int>::__type
 556:c:\program files\daisytoolchain\arm-none-eabi\include\c++\10.2.1\cmath ****     fpclassify(_Tp __x)
 557:c:\program files\daisytoolchain\arm-none-eabi\include\c++\10.2.1\cmath ****     { return __x != 0 ? FP_NORMAL : FP_ZERO; }
 558:c:\program files\daisytoolchain\arm-none-eabi\include\c++\10.2.1\cmath **** #endif
 559:c:\program files\daisytoolchain\arm-none-eabi\include\c++\10.2.1\cmath **** 
 560:c:\program files\daisytoolchain\arm-none-eabi\include\c++\10.2.1\cmath **** #ifndef __CORRECT_ISO_CPP11_MATH_H_PROTO_FP
 561:c:\program files\daisytoolchain\arm-none-eabi\include\c++\10.2.1\cmath ****   constexpr bool
 562:c:\program files\daisytoolchain\arm-none-eabi\include\c++\10.2.1\cmath ****   isfinite(float __x)
 563:c:\program files\daisytoolchain\arm-none-eabi\include\c++\10.2.1\cmath ****   { return __builtin_isfinite(__x); }
 564:c:\program files\daisytoolchain\arm-none-eabi\include\c++\10.2.1\cmath **** 
 565:c:\program files\daisytoolchain\arm-none-eabi\include\c++\10.2.1\cmath ****   constexpr bool
 566:c:\program files\daisytoolchain\arm-none-eabi\include\c++\10.2.1\cmath ****   isfinite(double __x)
 567:c:\program files\daisytoolchain\arm-none-eabi\include\c++\10.2.1\cmath ****   { return __builtin_isfinite(__x); }
 568:c:\program files\daisytoolchain\arm-none-eabi\include\c++\10.2.1\cmath **** 
 569:c:\program files\daisytoolchain\arm-none-eabi\include\c++\10.2.1\cmath ****   constexpr bool
 570:c:\program files\daisytoolchain\arm-none-eabi\include\c++\10.2.1\cmath ****   isfinite(long double __x)
 571:c:\program files\daisytoolchain\arm-none-eabi\include\c++\10.2.1\cmath ****   { return __builtin_isfinite(__x); }
 572:c:\program files\daisytoolchain\arm-none-eabi\include\c++\10.2.1\cmath **** #endif
 573:c:\program files\daisytoolchain\arm-none-eabi\include\c++\10.2.1\cmath **** 
 574:c:\program files\daisytoolchain\arm-none-eabi\include\c++\10.2.1\cmath **** #ifndef __CORRECT_ISO_CPP11_MATH_H_PROTO_INT
 575:c:\program files\daisytoolchain\arm-none-eabi\include\c++\10.2.1\cmath ****   template<typename _Tp>
 576:c:\program files\daisytoolchain\arm-none-eabi\include\c++\10.2.1\cmath ****     constexpr typename __gnu_cxx::__enable_if<__is_integer<_Tp>::__value,
 577:c:\program files\daisytoolchain\arm-none-eabi\include\c++\10.2.1\cmath ****                                               bool>::__type
 578:c:\program files\daisytoolchain\arm-none-eabi\include\c++\10.2.1\cmath ****     isfinite(_Tp __x)
 579:c:\program files\daisytoolchain\arm-none-eabi\include\c++\10.2.1\cmath ****     { return true; }
 580:c:\program files\daisytoolchain\arm-none-eabi\include\c++\10.2.1\cmath **** #endif
 581:c:\program files\daisytoolchain\arm-none-eabi\include\c++\10.2.1\cmath **** 
 582:c:\program files\daisytoolchain\arm-none-eabi\include\c++\10.2.1\cmath **** #ifndef __CORRECT_ISO_CPP11_MATH_H_PROTO_FP
 583:c:\program files\daisytoolchain\arm-none-eabi\include\c++\10.2.1\cmath ****   constexpr bool
 584:c:\program files\daisytoolchain\arm-none-eabi\include\c++\10.2.1\cmath ****   isinf(float __x)
 585:c:\program files\daisytoolchain\arm-none-eabi\include\c++\10.2.1\cmath ****   { return __builtin_isinf(__x); }
 586:c:\program files\daisytoolchain\arm-none-eabi\include\c++\10.2.1\cmath **** 
 587:c:\program files\daisytoolchain\arm-none-eabi\include\c++\10.2.1\cmath **** #if _GLIBCXX_HAVE_OBSOLETE_ISINF \
 588:c:\program files\daisytoolchain\arm-none-eabi\include\c++\10.2.1\cmath ****   && !_GLIBCXX_NO_OBSOLETE_ISINF_ISNAN_DYNAMIC
 589:c:\program files\daisytoolchain\arm-none-eabi\include\c++\10.2.1\cmath ****   using ::isinf;
 590:c:\program files\daisytoolchain\arm-none-eabi\include\c++\10.2.1\cmath **** #else
 591:c:\program files\daisytoolchain\arm-none-eabi\include\c++\10.2.1\cmath ****   constexpr bool
 592:c:\program files\daisytoolchain\arm-none-eabi\include\c++\10.2.1\cmath ****   isinf(double __x)
 593:c:\program files\daisytoolchain\arm-none-eabi\include\c++\10.2.1\cmath ****   { return __builtin_isinf(__x); }
 594:c:\program files\daisytoolchain\arm-none-eabi\include\c++\10.2.1\cmath **** #endif
 595:c:\program files\daisytoolchain\arm-none-eabi\include\c++\10.2.1\cmath **** 
 596:c:\program files\daisytoolchain\arm-none-eabi\include\c++\10.2.1\cmath ****   constexpr bool
 597:c:\program files\daisytoolchain\arm-none-eabi\include\c++\10.2.1\cmath ****   isinf(long double __x)
 598:c:\program files\daisytoolchain\arm-none-eabi\include\c++\10.2.1\cmath ****   { return __builtin_isinf(__x); }
 599:c:\program files\daisytoolchain\arm-none-eabi\include\c++\10.2.1\cmath **** #endif
 600:c:\program files\daisytoolchain\arm-none-eabi\include\c++\10.2.1\cmath **** 
 601:c:\program files\daisytoolchain\arm-none-eabi\include\c++\10.2.1\cmath **** #ifndef __CORRECT_ISO_CPP11_MATH_H_PROTO_INT
 602:c:\program files\daisytoolchain\arm-none-eabi\include\c++\10.2.1\cmath ****   template<typename _Tp>
 603:c:\program files\daisytoolchain\arm-none-eabi\include\c++\10.2.1\cmath ****     constexpr typename __gnu_cxx::__enable_if<__is_integer<_Tp>::__value,
 604:c:\program files\daisytoolchain\arm-none-eabi\include\c++\10.2.1\cmath ****                                               bool>::__type
ARM GAS  C:\Users\hahnm\AppData\Local\Temp\cc4Pvs9Z.s 			page 14


 605:c:\program files\daisytoolchain\arm-none-eabi\include\c++\10.2.1\cmath ****     isinf(_Tp __x)
 606:c:\program files\daisytoolchain\arm-none-eabi\include\c++\10.2.1\cmath ****     { return false; }
 607:c:\program files\daisytoolchain\arm-none-eabi\include\c++\10.2.1\cmath **** #endif
 608:c:\program files\daisytoolchain\arm-none-eabi\include\c++\10.2.1\cmath **** 
 609:c:\program files\daisytoolchain\arm-none-eabi\include\c++\10.2.1\cmath **** #ifndef __CORRECT_ISO_CPP11_MATH_H_PROTO_FP
 610:c:\program files\daisytoolchain\arm-none-eabi\include\c++\10.2.1\cmath ****   constexpr bool
 611:c:\program files\daisytoolchain\arm-none-eabi\include\c++\10.2.1\cmath ****   isnan(float __x)
 612:c:\program files\daisytoolchain\arm-none-eabi\include\c++\10.2.1\cmath ****   { return __builtin_isnan(__x); }
 613:c:\program files\daisytoolchain\arm-none-eabi\include\c++\10.2.1\cmath **** 
 614:c:\program files\daisytoolchain\arm-none-eabi\include\c++\10.2.1\cmath **** #if _GLIBCXX_HAVE_OBSOLETE_ISNAN \
 615:c:\program files\daisytoolchain\arm-none-eabi\include\c++\10.2.1\cmath ****   && !_GLIBCXX_NO_OBSOLETE_ISINF_ISNAN_DYNAMIC
 616:c:\program files\daisytoolchain\arm-none-eabi\include\c++\10.2.1\cmath ****   using ::isnan;
 617:c:\program files\daisytoolchain\arm-none-eabi\include\c++\10.2.1\cmath **** #else
 618:c:\program files\daisytoolchain\arm-none-eabi\include\c++\10.2.1\cmath ****   constexpr bool
 619:c:\program files\daisytoolchain\arm-none-eabi\include\c++\10.2.1\cmath ****   isnan(double __x)
 620:c:\program files\daisytoolchain\arm-none-eabi\include\c++\10.2.1\cmath ****   { return __builtin_isnan(__x); }
 621:c:\program files\daisytoolchain\arm-none-eabi\include\c++\10.2.1\cmath **** #endif
 622:c:\program files\daisytoolchain\arm-none-eabi\include\c++\10.2.1\cmath **** 
 623:c:\program files\daisytoolchain\arm-none-eabi\include\c++\10.2.1\cmath ****   constexpr bool
 624:c:\program files\daisytoolchain\arm-none-eabi\include\c++\10.2.1\cmath ****   isnan(long double __x)
 625:c:\program files\daisytoolchain\arm-none-eabi\include\c++\10.2.1\cmath ****   { return __builtin_isnan(__x); }
 626:c:\program files\daisytoolchain\arm-none-eabi\include\c++\10.2.1\cmath **** #endif
 627:c:\program files\daisytoolchain\arm-none-eabi\include\c++\10.2.1\cmath **** 
 628:c:\program files\daisytoolchain\arm-none-eabi\include\c++\10.2.1\cmath **** #ifndef __CORRECT_ISO_CPP11_MATH_H_PROTO_INT
 629:c:\program files\daisytoolchain\arm-none-eabi\include\c++\10.2.1\cmath ****   template<typename _Tp>
 630:c:\program files\daisytoolchain\arm-none-eabi\include\c++\10.2.1\cmath ****     constexpr typename __gnu_cxx::__enable_if<__is_integer<_Tp>::__value,
 631:c:\program files\daisytoolchain\arm-none-eabi\include\c++\10.2.1\cmath ****                                               bool>::__type
 632:c:\program files\daisytoolchain\arm-none-eabi\include\c++\10.2.1\cmath ****     isnan(_Tp __x)
 633:c:\program files\daisytoolchain\arm-none-eabi\include\c++\10.2.1\cmath ****     { return false; }
 634:c:\program files\daisytoolchain\arm-none-eabi\include\c++\10.2.1\cmath **** #endif
 635:c:\program files\daisytoolchain\arm-none-eabi\include\c++\10.2.1\cmath **** 
 636:c:\program files\daisytoolchain\arm-none-eabi\include\c++\10.2.1\cmath **** #ifndef __CORRECT_ISO_CPP11_MATH_H_PROTO_FP
 637:c:\program files\daisytoolchain\arm-none-eabi\include\c++\10.2.1\cmath ****   constexpr bool
 638:c:\program files\daisytoolchain\arm-none-eabi\include\c++\10.2.1\cmath ****   isnormal(float __x)
 639:c:\program files\daisytoolchain\arm-none-eabi\include\c++\10.2.1\cmath ****   { return __builtin_isnormal(__x); }
 640:c:\program files\daisytoolchain\arm-none-eabi\include\c++\10.2.1\cmath **** 
 641:c:\program files\daisytoolchain\arm-none-eabi\include\c++\10.2.1\cmath ****   constexpr bool
 642:c:\program files\daisytoolchain\arm-none-eabi\include\c++\10.2.1\cmath ****   isnormal(double __x)
 643:c:\program files\daisytoolchain\arm-none-eabi\include\c++\10.2.1\cmath ****   { return __builtin_isnormal(__x); }
 644:c:\program files\daisytoolchain\arm-none-eabi\include\c++\10.2.1\cmath **** 
 645:c:\program files\daisytoolchain\arm-none-eabi\include\c++\10.2.1\cmath ****   constexpr bool
 646:c:\program files\daisytoolchain\arm-none-eabi\include\c++\10.2.1\cmath ****   isnormal(long double __x)
 647:c:\program files\daisytoolchain\arm-none-eabi\include\c++\10.2.1\cmath ****   { return __builtin_isnormal(__x); }
 648:c:\program files\daisytoolchain\arm-none-eabi\include\c++\10.2.1\cmath **** #endif
 649:c:\program files\daisytoolchain\arm-none-eabi\include\c++\10.2.1\cmath **** 
 650:c:\program files\daisytoolchain\arm-none-eabi\include\c++\10.2.1\cmath **** #ifndef __CORRECT_ISO_CPP11_MATH_H_PROTO_INT
 651:c:\program files\daisytoolchain\arm-none-eabi\include\c++\10.2.1\cmath ****   template<typename _Tp>
 652:c:\program files\daisytoolchain\arm-none-eabi\include\c++\10.2.1\cmath ****     constexpr typename __gnu_cxx::__enable_if<__is_integer<_Tp>::__value,
 653:c:\program files\daisytoolchain\arm-none-eabi\include\c++\10.2.1\cmath ****                                               bool>::__type
 654:c:\program files\daisytoolchain\arm-none-eabi\include\c++\10.2.1\cmath ****     isnormal(_Tp __x)
 655:c:\program files\daisytoolchain\arm-none-eabi\include\c++\10.2.1\cmath ****     { return __x != 0 ? true : false; }
 656:c:\program files\daisytoolchain\arm-none-eabi\include\c++\10.2.1\cmath **** #endif
 657:c:\program files\daisytoolchain\arm-none-eabi\include\c++\10.2.1\cmath **** 
 658:c:\program files\daisytoolchain\arm-none-eabi\include\c++\10.2.1\cmath **** #ifndef __CORRECT_ISO_CPP11_MATH_H_PROTO_FP
 659:c:\program files\daisytoolchain\arm-none-eabi\include\c++\10.2.1\cmath ****   // Note: middle-end/36757 is fixed, __builtin_signbit is type-generic.
 660:c:\program files\daisytoolchain\arm-none-eabi\include\c++\10.2.1\cmath ****   constexpr bool
 661:c:\program files\daisytoolchain\arm-none-eabi\include\c++\10.2.1\cmath ****   signbit(float __x)
ARM GAS  C:\Users\hahnm\AppData\Local\Temp\cc4Pvs9Z.s 			page 15


 662:c:\program files\daisytoolchain\arm-none-eabi\include\c++\10.2.1\cmath ****   { return __builtin_signbit(__x); }
 663:c:\program files\daisytoolchain\arm-none-eabi\include\c++\10.2.1\cmath **** 
 664:c:\program files\daisytoolchain\arm-none-eabi\include\c++\10.2.1\cmath ****   constexpr bool
 665:c:\program files\daisytoolchain\arm-none-eabi\include\c++\10.2.1\cmath ****   signbit(double __x)
 666:c:\program files\daisytoolchain\arm-none-eabi\include\c++\10.2.1\cmath ****   { return __builtin_signbit(__x); }
 667:c:\program files\daisytoolchain\arm-none-eabi\include\c++\10.2.1\cmath **** 
 668:c:\program files\daisytoolchain\arm-none-eabi\include\c++\10.2.1\cmath ****   constexpr bool
 669:c:\program files\daisytoolchain\arm-none-eabi\include\c++\10.2.1\cmath ****   signbit(long double __x)
 670:c:\program files\daisytoolchain\arm-none-eabi\include\c++\10.2.1\cmath ****   { return __builtin_signbit(__x); }
 671:c:\program files\daisytoolchain\arm-none-eabi\include\c++\10.2.1\cmath **** #endif
 672:c:\program files\daisytoolchain\arm-none-eabi\include\c++\10.2.1\cmath **** 
 673:c:\program files\daisytoolchain\arm-none-eabi\include\c++\10.2.1\cmath **** #ifndef __CORRECT_ISO_CPP11_MATH_H_PROTO_INT
 674:c:\program files\daisytoolchain\arm-none-eabi\include\c++\10.2.1\cmath ****   template<typename _Tp>
 675:c:\program files\daisytoolchain\arm-none-eabi\include\c++\10.2.1\cmath ****     constexpr typename __gnu_cxx::__enable_if<__is_integer<_Tp>::__value,
 676:c:\program files\daisytoolchain\arm-none-eabi\include\c++\10.2.1\cmath ****                                               bool>::__type
 677:c:\program files\daisytoolchain\arm-none-eabi\include\c++\10.2.1\cmath ****     signbit(_Tp __x)
 678:c:\program files\daisytoolchain\arm-none-eabi\include\c++\10.2.1\cmath ****     { return __x < 0 ? true : false; }
 679:c:\program files\daisytoolchain\arm-none-eabi\include\c++\10.2.1\cmath **** #endif
 680:c:\program files\daisytoolchain\arm-none-eabi\include\c++\10.2.1\cmath **** 
 681:c:\program files\daisytoolchain\arm-none-eabi\include\c++\10.2.1\cmath **** #ifndef __CORRECT_ISO_CPP11_MATH_H_PROTO_FP
 682:c:\program files\daisytoolchain\arm-none-eabi\include\c++\10.2.1\cmath ****   constexpr bool
 683:c:\program files\daisytoolchain\arm-none-eabi\include\c++\10.2.1\cmath ****   isgreater(float __x, float __y)
 684:c:\program files\daisytoolchain\arm-none-eabi\include\c++\10.2.1\cmath ****   { return __builtin_isgreater(__x, __y); }
 685:c:\program files\daisytoolchain\arm-none-eabi\include\c++\10.2.1\cmath **** 
 686:c:\program files\daisytoolchain\arm-none-eabi\include\c++\10.2.1\cmath ****   constexpr bool
 687:c:\program files\daisytoolchain\arm-none-eabi\include\c++\10.2.1\cmath ****   isgreater(double __x, double __y)
 688:c:\program files\daisytoolchain\arm-none-eabi\include\c++\10.2.1\cmath ****   { return __builtin_isgreater(__x, __y); }
 689:c:\program files\daisytoolchain\arm-none-eabi\include\c++\10.2.1\cmath **** 
 690:c:\program files\daisytoolchain\arm-none-eabi\include\c++\10.2.1\cmath ****   constexpr bool
 691:c:\program files\daisytoolchain\arm-none-eabi\include\c++\10.2.1\cmath ****   isgreater(long double __x, long double __y)
 692:c:\program files\daisytoolchain\arm-none-eabi\include\c++\10.2.1\cmath ****   { return __builtin_isgreater(__x, __y); }
 693:c:\program files\daisytoolchain\arm-none-eabi\include\c++\10.2.1\cmath **** #endif
 694:c:\program files\daisytoolchain\arm-none-eabi\include\c++\10.2.1\cmath **** 
 695:c:\program files\daisytoolchain\arm-none-eabi\include\c++\10.2.1\cmath **** #ifndef __CORRECT_ISO_CPP11_MATH_H_PROTO_INT
 696:c:\program files\daisytoolchain\arm-none-eabi\include\c++\10.2.1\cmath ****   template<typename _Tp, typename _Up>
 697:c:\program files\daisytoolchain\arm-none-eabi\include\c++\10.2.1\cmath ****     constexpr typename
 698:c:\program files\daisytoolchain\arm-none-eabi\include\c++\10.2.1\cmath ****     __gnu_cxx::__enable_if<(__is_arithmetic<_Tp>::__value
 699:c:\program files\daisytoolchain\arm-none-eabi\include\c++\10.2.1\cmath **** 			    && __is_arithmetic<_Up>::__value), bool>::__type
 700:c:\program files\daisytoolchain\arm-none-eabi\include\c++\10.2.1\cmath ****     isgreater(_Tp __x, _Up __y)
 701:c:\program files\daisytoolchain\arm-none-eabi\include\c++\10.2.1\cmath ****     {
 702:c:\program files\daisytoolchain\arm-none-eabi\include\c++\10.2.1\cmath ****       typedef typename __gnu_cxx::__promote_2<_Tp, _Up>::__type __type;
 703:c:\program files\daisytoolchain\arm-none-eabi\include\c++\10.2.1\cmath ****       return __builtin_isgreater(__type(__x), __type(__y));
 704:c:\program files\daisytoolchain\arm-none-eabi\include\c++\10.2.1\cmath ****     }
 705:c:\program files\daisytoolchain\arm-none-eabi\include\c++\10.2.1\cmath **** #endif
 706:c:\program files\daisytoolchain\arm-none-eabi\include\c++\10.2.1\cmath **** 
 707:c:\program files\daisytoolchain\arm-none-eabi\include\c++\10.2.1\cmath **** #ifndef __CORRECT_ISO_CPP11_MATH_H_PROTO_FP
 708:c:\program files\daisytoolchain\arm-none-eabi\include\c++\10.2.1\cmath ****   constexpr bool
 709:c:\program files\daisytoolchain\arm-none-eabi\include\c++\10.2.1\cmath ****   isgreaterequal(float __x, float __y)
 710:c:\program files\daisytoolchain\arm-none-eabi\include\c++\10.2.1\cmath ****   { return __builtin_isgreaterequal(__x, __y); }
 711:c:\program files\daisytoolchain\arm-none-eabi\include\c++\10.2.1\cmath **** 
 712:c:\program files\daisytoolchain\arm-none-eabi\include\c++\10.2.1\cmath ****   constexpr bool
 713:c:\program files\daisytoolchain\arm-none-eabi\include\c++\10.2.1\cmath ****   isgreaterequal(double __x, double __y)
 714:c:\program files\daisytoolchain\arm-none-eabi\include\c++\10.2.1\cmath ****   { return __builtin_isgreaterequal(__x, __y); }
 715:c:\program files\daisytoolchain\arm-none-eabi\include\c++\10.2.1\cmath **** 
 716:c:\program files\daisytoolchain\arm-none-eabi\include\c++\10.2.1\cmath ****   constexpr bool
 717:c:\program files\daisytoolchain\arm-none-eabi\include\c++\10.2.1\cmath ****   isgreaterequal(long double __x, long double __y)
 718:c:\program files\daisytoolchain\arm-none-eabi\include\c++\10.2.1\cmath ****   { return __builtin_isgreaterequal(__x, __y); }
ARM GAS  C:\Users\hahnm\AppData\Local\Temp\cc4Pvs9Z.s 			page 16


 719:c:\program files\daisytoolchain\arm-none-eabi\include\c++\10.2.1\cmath **** #endif
 720:c:\program files\daisytoolchain\arm-none-eabi\include\c++\10.2.1\cmath **** 
 721:c:\program files\daisytoolchain\arm-none-eabi\include\c++\10.2.1\cmath **** #ifndef __CORRECT_ISO_CPP11_MATH_H_PROTO_INT
 722:c:\program files\daisytoolchain\arm-none-eabi\include\c++\10.2.1\cmath ****   template<typename _Tp, typename _Up>
 723:c:\program files\daisytoolchain\arm-none-eabi\include\c++\10.2.1\cmath ****     constexpr typename
 724:c:\program files\daisytoolchain\arm-none-eabi\include\c++\10.2.1\cmath ****     __gnu_cxx::__enable_if<(__is_arithmetic<_Tp>::__value
 725:c:\program files\daisytoolchain\arm-none-eabi\include\c++\10.2.1\cmath **** 			    && __is_arithmetic<_Up>::__value), bool>::__type
 726:c:\program files\daisytoolchain\arm-none-eabi\include\c++\10.2.1\cmath ****     isgreaterequal(_Tp __x, _Up __y)
 727:c:\program files\daisytoolchain\arm-none-eabi\include\c++\10.2.1\cmath ****     {
 728:c:\program files\daisytoolchain\arm-none-eabi\include\c++\10.2.1\cmath ****       typedef typename __gnu_cxx::__promote_2<_Tp, _Up>::__type __type;
 729:c:\program files\daisytoolchain\arm-none-eabi\include\c++\10.2.1\cmath ****       return __builtin_isgreaterequal(__type(__x), __type(__y));
 730:c:\program files\daisytoolchain\arm-none-eabi\include\c++\10.2.1\cmath ****     }
 731:c:\program files\daisytoolchain\arm-none-eabi\include\c++\10.2.1\cmath **** #endif
 732:c:\program files\daisytoolchain\arm-none-eabi\include\c++\10.2.1\cmath **** 
 733:c:\program files\daisytoolchain\arm-none-eabi\include\c++\10.2.1\cmath **** #ifndef __CORRECT_ISO_CPP11_MATH_H_PROTO_FP
 734:c:\program files\daisytoolchain\arm-none-eabi\include\c++\10.2.1\cmath ****   constexpr bool
 735:c:\program files\daisytoolchain\arm-none-eabi\include\c++\10.2.1\cmath ****   isless(float __x, float __y)
 736:c:\program files\daisytoolchain\arm-none-eabi\include\c++\10.2.1\cmath ****   { return __builtin_isless(__x, __y); }
 737:c:\program files\daisytoolchain\arm-none-eabi\include\c++\10.2.1\cmath **** 
 738:c:\program files\daisytoolchain\arm-none-eabi\include\c++\10.2.1\cmath ****   constexpr bool
 739:c:\program files\daisytoolchain\arm-none-eabi\include\c++\10.2.1\cmath ****   isless(double __x, double __y)
 740:c:\program files\daisytoolchain\arm-none-eabi\include\c++\10.2.1\cmath ****   { return __builtin_isless(__x, __y); }
 741:c:\program files\daisytoolchain\arm-none-eabi\include\c++\10.2.1\cmath **** 
 742:c:\program files\daisytoolchain\arm-none-eabi\include\c++\10.2.1\cmath ****   constexpr bool
 743:c:\program files\daisytoolchain\arm-none-eabi\include\c++\10.2.1\cmath ****   isless(long double __x, long double __y)
 744:c:\program files\daisytoolchain\arm-none-eabi\include\c++\10.2.1\cmath ****   { return __builtin_isless(__x, __y); }
 745:c:\program files\daisytoolchain\arm-none-eabi\include\c++\10.2.1\cmath **** #endif
 746:c:\program files\daisytoolchain\arm-none-eabi\include\c++\10.2.1\cmath **** 
 747:c:\program files\daisytoolchain\arm-none-eabi\include\c++\10.2.1\cmath **** #ifndef __CORRECT_ISO_CPP11_MATH_H_PROTO_INT
 748:c:\program files\daisytoolchain\arm-none-eabi\include\c++\10.2.1\cmath ****   template<typename _Tp, typename _Up>
 749:c:\program files\daisytoolchain\arm-none-eabi\include\c++\10.2.1\cmath ****     constexpr typename
 750:c:\program files\daisytoolchain\arm-none-eabi\include\c++\10.2.1\cmath ****     __gnu_cxx::__enable_if<(__is_arithmetic<_Tp>::__value
 751:c:\program files\daisytoolchain\arm-none-eabi\include\c++\10.2.1\cmath **** 			    && __is_arithmetic<_Up>::__value), bool>::__type
 752:c:\program files\daisytoolchain\arm-none-eabi\include\c++\10.2.1\cmath ****     isless(_Tp __x, _Up __y)
 753:c:\program files\daisytoolchain\arm-none-eabi\include\c++\10.2.1\cmath ****     {
 754:c:\program files\daisytoolchain\arm-none-eabi\include\c++\10.2.1\cmath ****       typedef typename __gnu_cxx::__promote_2<_Tp, _Up>::__type __type;
 755:c:\program files\daisytoolchain\arm-none-eabi\include\c++\10.2.1\cmath ****       return __builtin_isless(__type(__x), __type(__y));
 756:c:\program files\daisytoolchain\arm-none-eabi\include\c++\10.2.1\cmath ****     }
 757:c:\program files\daisytoolchain\arm-none-eabi\include\c++\10.2.1\cmath **** #endif
 758:c:\program files\daisytoolchain\arm-none-eabi\include\c++\10.2.1\cmath **** 
 759:c:\program files\daisytoolchain\arm-none-eabi\include\c++\10.2.1\cmath **** #ifndef __CORRECT_ISO_CPP11_MATH_H_PROTO_FP
 760:c:\program files\daisytoolchain\arm-none-eabi\include\c++\10.2.1\cmath ****   constexpr bool
 761:c:\program files\daisytoolchain\arm-none-eabi\include\c++\10.2.1\cmath ****   islessequal(float __x, float __y)
 762:c:\program files\daisytoolchain\arm-none-eabi\include\c++\10.2.1\cmath ****   { return __builtin_islessequal(__x, __y); }
 763:c:\program files\daisytoolchain\arm-none-eabi\include\c++\10.2.1\cmath **** 
 764:c:\program files\daisytoolchain\arm-none-eabi\include\c++\10.2.1\cmath ****   constexpr bool
 765:c:\program files\daisytoolchain\arm-none-eabi\include\c++\10.2.1\cmath ****   islessequal(double __x, double __y)
 766:c:\program files\daisytoolchain\arm-none-eabi\include\c++\10.2.1\cmath ****   { return __builtin_islessequal(__x, __y); }
 767:c:\program files\daisytoolchain\arm-none-eabi\include\c++\10.2.1\cmath **** 
 768:c:\program files\daisytoolchain\arm-none-eabi\include\c++\10.2.1\cmath ****   constexpr bool
 769:c:\program files\daisytoolchain\arm-none-eabi\include\c++\10.2.1\cmath ****   islessequal(long double __x, long double __y)
 770:c:\program files\daisytoolchain\arm-none-eabi\include\c++\10.2.1\cmath ****   { return __builtin_islessequal(__x, __y); }
 771:c:\program files\daisytoolchain\arm-none-eabi\include\c++\10.2.1\cmath **** #endif
 772:c:\program files\daisytoolchain\arm-none-eabi\include\c++\10.2.1\cmath **** 
 773:c:\program files\daisytoolchain\arm-none-eabi\include\c++\10.2.1\cmath **** #ifndef __CORRECT_ISO_CPP11_MATH_H_PROTO_INT
 774:c:\program files\daisytoolchain\arm-none-eabi\include\c++\10.2.1\cmath ****   template<typename _Tp, typename _Up>
 775:c:\program files\daisytoolchain\arm-none-eabi\include\c++\10.2.1\cmath ****     constexpr typename
ARM GAS  C:\Users\hahnm\AppData\Local\Temp\cc4Pvs9Z.s 			page 17


 776:c:\program files\daisytoolchain\arm-none-eabi\include\c++\10.2.1\cmath ****     __gnu_cxx::__enable_if<(__is_arithmetic<_Tp>::__value
 777:c:\program files\daisytoolchain\arm-none-eabi\include\c++\10.2.1\cmath **** 			    && __is_arithmetic<_Up>::__value), bool>::__type
 778:c:\program files\daisytoolchain\arm-none-eabi\include\c++\10.2.1\cmath ****     islessequal(_Tp __x, _Up __y)
 779:c:\program files\daisytoolchain\arm-none-eabi\include\c++\10.2.1\cmath ****     {
 780:c:\program files\daisytoolchain\arm-none-eabi\include\c++\10.2.1\cmath ****       typedef typename __gnu_cxx::__promote_2<_Tp, _Up>::__type __type;
 781:c:\program files\daisytoolchain\arm-none-eabi\include\c++\10.2.1\cmath ****       return __builtin_islessequal(__type(__x), __type(__y));
 782:c:\program files\daisytoolchain\arm-none-eabi\include\c++\10.2.1\cmath ****     }
 783:c:\program files\daisytoolchain\arm-none-eabi\include\c++\10.2.1\cmath **** #endif
 784:c:\program files\daisytoolchain\arm-none-eabi\include\c++\10.2.1\cmath **** 
 785:c:\program files\daisytoolchain\arm-none-eabi\include\c++\10.2.1\cmath **** #ifndef __CORRECT_ISO_CPP11_MATH_H_PROTO_FP
 786:c:\program files\daisytoolchain\arm-none-eabi\include\c++\10.2.1\cmath ****   constexpr bool
 787:c:\program files\daisytoolchain\arm-none-eabi\include\c++\10.2.1\cmath ****   islessgreater(float __x, float __y)
 788:c:\program files\daisytoolchain\arm-none-eabi\include\c++\10.2.1\cmath ****   { return __builtin_islessgreater(__x, __y); }
 789:c:\program files\daisytoolchain\arm-none-eabi\include\c++\10.2.1\cmath **** 
 790:c:\program files\daisytoolchain\arm-none-eabi\include\c++\10.2.1\cmath ****   constexpr bool
 791:c:\program files\daisytoolchain\arm-none-eabi\include\c++\10.2.1\cmath ****   islessgreater(double __x, double __y)
 792:c:\program files\daisytoolchain\arm-none-eabi\include\c++\10.2.1\cmath ****   { return __builtin_islessgreater(__x, __y); }
 793:c:\program files\daisytoolchain\arm-none-eabi\include\c++\10.2.1\cmath **** 
 794:c:\program files\daisytoolchain\arm-none-eabi\include\c++\10.2.1\cmath ****   constexpr bool
 795:c:\program files\daisytoolchain\arm-none-eabi\include\c++\10.2.1\cmath ****   islessgreater(long double __x, long double __y)
 796:c:\program files\daisytoolchain\arm-none-eabi\include\c++\10.2.1\cmath ****   { return __builtin_islessgreater(__x, __y); }
 797:c:\program files\daisytoolchain\arm-none-eabi\include\c++\10.2.1\cmath **** #endif
 798:c:\program files\daisytoolchain\arm-none-eabi\include\c++\10.2.1\cmath **** 
 799:c:\program files\daisytoolchain\arm-none-eabi\include\c++\10.2.1\cmath **** #ifndef __CORRECT_ISO_CPP11_MATH_H_PROTO_INT
 800:c:\program files\daisytoolchain\arm-none-eabi\include\c++\10.2.1\cmath ****   template<typename _Tp, typename _Up>
 801:c:\program files\daisytoolchain\arm-none-eabi\include\c++\10.2.1\cmath ****     constexpr typename
 802:c:\program files\daisytoolchain\arm-none-eabi\include\c++\10.2.1\cmath ****     __gnu_cxx::__enable_if<(__is_arithmetic<_Tp>::__value
 803:c:\program files\daisytoolchain\arm-none-eabi\include\c++\10.2.1\cmath **** 			    && __is_arithmetic<_Up>::__value), bool>::__type
 804:c:\program files\daisytoolchain\arm-none-eabi\include\c++\10.2.1\cmath ****     islessgreater(_Tp __x, _Up __y)
 805:c:\program files\daisytoolchain\arm-none-eabi\include\c++\10.2.1\cmath ****     {
 806:c:\program files\daisytoolchain\arm-none-eabi\include\c++\10.2.1\cmath ****       typedef typename __gnu_cxx::__promote_2<_Tp, _Up>::__type __type;
 807:c:\program files\daisytoolchain\arm-none-eabi\include\c++\10.2.1\cmath ****       return __builtin_islessgreater(__type(__x), __type(__y));
 808:c:\program files\daisytoolchain\arm-none-eabi\include\c++\10.2.1\cmath ****     }
 809:c:\program files\daisytoolchain\arm-none-eabi\include\c++\10.2.1\cmath **** #endif
 810:c:\program files\daisytoolchain\arm-none-eabi\include\c++\10.2.1\cmath **** 
 811:c:\program files\daisytoolchain\arm-none-eabi\include\c++\10.2.1\cmath **** #ifndef __CORRECT_ISO_CPP11_MATH_H_PROTO_FP
 812:c:\program files\daisytoolchain\arm-none-eabi\include\c++\10.2.1\cmath ****   constexpr bool
 813:c:\program files\daisytoolchain\arm-none-eabi\include\c++\10.2.1\cmath ****   isunordered(float __x, float __y)
 814:c:\program files\daisytoolchain\arm-none-eabi\include\c++\10.2.1\cmath ****   { return __builtin_isunordered(__x, __y); }
 815:c:\program files\daisytoolchain\arm-none-eabi\include\c++\10.2.1\cmath **** 
 816:c:\program files\daisytoolchain\arm-none-eabi\include\c++\10.2.1\cmath ****   constexpr bool
 817:c:\program files\daisytoolchain\arm-none-eabi\include\c++\10.2.1\cmath ****   isunordered(double __x, double __y)
 818:c:\program files\daisytoolchain\arm-none-eabi\include\c++\10.2.1\cmath ****   { return __builtin_isunordered(__x, __y); }
 819:c:\program files\daisytoolchain\arm-none-eabi\include\c++\10.2.1\cmath **** 
 820:c:\program files\daisytoolchain\arm-none-eabi\include\c++\10.2.1\cmath ****   constexpr bool
 821:c:\program files\daisytoolchain\arm-none-eabi\include\c++\10.2.1\cmath ****   isunordered(long double __x, long double __y)
 822:c:\program files\daisytoolchain\arm-none-eabi\include\c++\10.2.1\cmath ****   { return __builtin_isunordered(__x, __y); }
 823:c:\program files\daisytoolchain\arm-none-eabi\include\c++\10.2.1\cmath **** #endif
 824:c:\program files\daisytoolchain\arm-none-eabi\include\c++\10.2.1\cmath **** 
 825:c:\program files\daisytoolchain\arm-none-eabi\include\c++\10.2.1\cmath **** #ifndef __CORRECT_ISO_CPP11_MATH_H_PROTO_INT
 826:c:\program files\daisytoolchain\arm-none-eabi\include\c++\10.2.1\cmath ****   template<typename _Tp, typename _Up>
 827:c:\program files\daisytoolchain\arm-none-eabi\include\c++\10.2.1\cmath ****     constexpr typename
 828:c:\program files\daisytoolchain\arm-none-eabi\include\c++\10.2.1\cmath ****     __gnu_cxx::__enable_if<(__is_arithmetic<_Tp>::__value
 829:c:\program files\daisytoolchain\arm-none-eabi\include\c++\10.2.1\cmath **** 			    && __is_arithmetic<_Up>::__value), bool>::__type
 830:c:\program files\daisytoolchain\arm-none-eabi\include\c++\10.2.1\cmath ****     isunordered(_Tp __x, _Up __y)
 831:c:\program files\daisytoolchain\arm-none-eabi\include\c++\10.2.1\cmath ****     {
 832:c:\program files\daisytoolchain\arm-none-eabi\include\c++\10.2.1\cmath ****       typedef typename __gnu_cxx::__promote_2<_Tp, _Up>::__type __type;
ARM GAS  C:\Users\hahnm\AppData\Local\Temp\cc4Pvs9Z.s 			page 18


 833:c:\program files\daisytoolchain\arm-none-eabi\include\c++\10.2.1\cmath ****       return __builtin_isunordered(__type(__x), __type(__y));
 834:c:\program files\daisytoolchain\arm-none-eabi\include\c++\10.2.1\cmath ****     }
 835:c:\program files\daisytoolchain\arm-none-eabi\include\c++\10.2.1\cmath **** #endif
 836:c:\program files\daisytoolchain\arm-none-eabi\include\c++\10.2.1\cmath **** 
 837:c:\program files\daisytoolchain\arm-none-eabi\include\c++\10.2.1\cmath **** #else
 838:c:\program files\daisytoolchain\arm-none-eabi\include\c++\10.2.1\cmath **** 
 839:c:\program files\daisytoolchain\arm-none-eabi\include\c++\10.2.1\cmath ****   template<typename _Tp>
 840:c:\program files\daisytoolchain\arm-none-eabi\include\c++\10.2.1\cmath ****     inline typename __gnu_cxx::__enable_if<__is_arithmetic<_Tp>::__value,
 841:c:\program files\daisytoolchain\arm-none-eabi\include\c++\10.2.1\cmath **** 					   int>::__type
 842:c:\program files\daisytoolchain\arm-none-eabi\include\c++\10.2.1\cmath ****     fpclassify(_Tp __f)
 843:c:\program files\daisytoolchain\arm-none-eabi\include\c++\10.2.1\cmath ****     {
 844:c:\program files\daisytoolchain\arm-none-eabi\include\c++\10.2.1\cmath ****       typedef typename __gnu_cxx::__promote<_Tp>::__type __type;
 845:c:\program files\daisytoolchain\arm-none-eabi\include\c++\10.2.1\cmath ****       return __builtin_fpclassify(FP_NAN, FP_INFINITE, FP_NORMAL,
 846:c:\program files\daisytoolchain\arm-none-eabi\include\c++\10.2.1\cmath **** 				  FP_SUBNORMAL, FP_ZERO, __type(__f));
 847:c:\program files\daisytoolchain\arm-none-eabi\include\c++\10.2.1\cmath ****     }
 848:c:\program files\daisytoolchain\arm-none-eabi\include\c++\10.2.1\cmath **** 
 849:c:\program files\daisytoolchain\arm-none-eabi\include\c++\10.2.1\cmath ****   template<typename _Tp>
 850:c:\program files\daisytoolchain\arm-none-eabi\include\c++\10.2.1\cmath ****     inline typename __gnu_cxx::__enable_if<__is_arithmetic<_Tp>::__value,
 851:c:\program files\daisytoolchain\arm-none-eabi\include\c++\10.2.1\cmath **** 					   int>::__type
 852:c:\program files\daisytoolchain\arm-none-eabi\include\c++\10.2.1\cmath ****     isfinite(_Tp __f)
 853:c:\program files\daisytoolchain\arm-none-eabi\include\c++\10.2.1\cmath ****     {
 854:c:\program files\daisytoolchain\arm-none-eabi\include\c++\10.2.1\cmath ****       typedef typename __gnu_cxx::__promote<_Tp>::__type __type;
 855:c:\program files\daisytoolchain\arm-none-eabi\include\c++\10.2.1\cmath ****       return __builtin_isfinite(__type(__f));
 856:c:\program files\daisytoolchain\arm-none-eabi\include\c++\10.2.1\cmath ****     }
 857:c:\program files\daisytoolchain\arm-none-eabi\include\c++\10.2.1\cmath **** 
 858:c:\program files\daisytoolchain\arm-none-eabi\include\c++\10.2.1\cmath ****   template<typename _Tp>
 859:c:\program files\daisytoolchain\arm-none-eabi\include\c++\10.2.1\cmath ****     inline typename __gnu_cxx::__enable_if<__is_arithmetic<_Tp>::__value,
 860:c:\program files\daisytoolchain\arm-none-eabi\include\c++\10.2.1\cmath **** 					   int>::__type
 861:c:\program files\daisytoolchain\arm-none-eabi\include\c++\10.2.1\cmath ****     isinf(_Tp __f)
 862:c:\program files\daisytoolchain\arm-none-eabi\include\c++\10.2.1\cmath ****     {
 863:c:\program files\daisytoolchain\arm-none-eabi\include\c++\10.2.1\cmath ****       typedef typename __gnu_cxx::__promote<_Tp>::__type __type;
 864:c:\program files\daisytoolchain\arm-none-eabi\include\c++\10.2.1\cmath ****       return __builtin_isinf(__type(__f));
 865:c:\program files\daisytoolchain\arm-none-eabi\include\c++\10.2.1\cmath ****     }
 866:c:\program files\daisytoolchain\arm-none-eabi\include\c++\10.2.1\cmath **** 
 867:c:\program files\daisytoolchain\arm-none-eabi\include\c++\10.2.1\cmath ****   template<typename _Tp>
 868:c:\program files\daisytoolchain\arm-none-eabi\include\c++\10.2.1\cmath ****     inline typename __gnu_cxx::__enable_if<__is_arithmetic<_Tp>::__value,
 869:c:\program files\daisytoolchain\arm-none-eabi\include\c++\10.2.1\cmath **** 					   int>::__type
 870:c:\program files\daisytoolchain\arm-none-eabi\include\c++\10.2.1\cmath ****     isnan(_Tp __f)
 871:c:\program files\daisytoolchain\arm-none-eabi\include\c++\10.2.1\cmath ****     {
 872:c:\program files\daisytoolchain\arm-none-eabi\include\c++\10.2.1\cmath ****       typedef typename __gnu_cxx::__promote<_Tp>::__type __type;
 873:c:\program files\daisytoolchain\arm-none-eabi\include\c++\10.2.1\cmath ****       return __builtin_isnan(__type(__f));
 874:c:\program files\daisytoolchain\arm-none-eabi\include\c++\10.2.1\cmath ****     }
 875:c:\program files\daisytoolchain\arm-none-eabi\include\c++\10.2.1\cmath **** 
 876:c:\program files\daisytoolchain\arm-none-eabi\include\c++\10.2.1\cmath ****   template<typename _Tp>
 877:c:\program files\daisytoolchain\arm-none-eabi\include\c++\10.2.1\cmath ****     inline typename __gnu_cxx::__enable_if<__is_arithmetic<_Tp>::__value,
 878:c:\program files\daisytoolchain\arm-none-eabi\include\c++\10.2.1\cmath **** 					   int>::__type
 879:c:\program files\daisytoolchain\arm-none-eabi\include\c++\10.2.1\cmath ****     isnormal(_Tp __f)
 880:c:\program files\daisytoolchain\arm-none-eabi\include\c++\10.2.1\cmath ****     {
 881:c:\program files\daisytoolchain\arm-none-eabi\include\c++\10.2.1\cmath ****       typedef typename __gnu_cxx::__promote<_Tp>::__type __type;
 882:c:\program files\daisytoolchain\arm-none-eabi\include\c++\10.2.1\cmath ****       return __builtin_isnormal(__type(__f));
 883:c:\program files\daisytoolchain\arm-none-eabi\include\c++\10.2.1\cmath ****     }
 884:c:\program files\daisytoolchain\arm-none-eabi\include\c++\10.2.1\cmath **** 
 885:c:\program files\daisytoolchain\arm-none-eabi\include\c++\10.2.1\cmath ****   template<typename _Tp>
 886:c:\program files\daisytoolchain\arm-none-eabi\include\c++\10.2.1\cmath ****     inline typename __gnu_cxx::__enable_if<__is_arithmetic<_Tp>::__value,
 887:c:\program files\daisytoolchain\arm-none-eabi\include\c++\10.2.1\cmath **** 					   int>::__type
 888:c:\program files\daisytoolchain\arm-none-eabi\include\c++\10.2.1\cmath ****     signbit(_Tp __f)
 889:c:\program files\daisytoolchain\arm-none-eabi\include\c++\10.2.1\cmath ****     {
ARM GAS  C:\Users\hahnm\AppData\Local\Temp\cc4Pvs9Z.s 			page 19


 890:c:\program files\daisytoolchain\arm-none-eabi\include\c++\10.2.1\cmath ****       typedef typename __gnu_cxx::__promote<_Tp>::__type __type;
 891:c:\program files\daisytoolchain\arm-none-eabi\include\c++\10.2.1\cmath ****       return __builtin_signbit(__type(__f));
 892:c:\program files\daisytoolchain\arm-none-eabi\include\c++\10.2.1\cmath ****     }
 893:c:\program files\daisytoolchain\arm-none-eabi\include\c++\10.2.1\cmath **** 
 894:c:\program files\daisytoolchain\arm-none-eabi\include\c++\10.2.1\cmath ****   template<typename _Tp>
 895:c:\program files\daisytoolchain\arm-none-eabi\include\c++\10.2.1\cmath ****     inline typename __gnu_cxx::__enable_if<__is_arithmetic<_Tp>::__value,
 896:c:\program files\daisytoolchain\arm-none-eabi\include\c++\10.2.1\cmath **** 					   int>::__type
 897:c:\program files\daisytoolchain\arm-none-eabi\include\c++\10.2.1\cmath ****     isgreater(_Tp __f1, _Tp __f2)
 898:c:\program files\daisytoolchain\arm-none-eabi\include\c++\10.2.1\cmath ****     {
 899:c:\program files\daisytoolchain\arm-none-eabi\include\c++\10.2.1\cmath ****       typedef typename __gnu_cxx::__promote<_Tp>::__type __type;
 900:c:\program files\daisytoolchain\arm-none-eabi\include\c++\10.2.1\cmath ****       return __builtin_isgreater(__type(__f1), __type(__f2));
 901:c:\program files\daisytoolchain\arm-none-eabi\include\c++\10.2.1\cmath ****     }
 902:c:\program files\daisytoolchain\arm-none-eabi\include\c++\10.2.1\cmath **** 
 903:c:\program files\daisytoolchain\arm-none-eabi\include\c++\10.2.1\cmath ****   template<typename _Tp>
 904:c:\program files\daisytoolchain\arm-none-eabi\include\c++\10.2.1\cmath ****     inline typename __gnu_cxx::__enable_if<__is_arithmetic<_Tp>::__value,
 905:c:\program files\daisytoolchain\arm-none-eabi\include\c++\10.2.1\cmath **** 					   int>::__type
 906:c:\program files\daisytoolchain\arm-none-eabi\include\c++\10.2.1\cmath ****     isgreaterequal(_Tp __f1, _Tp __f2)
 907:c:\program files\daisytoolchain\arm-none-eabi\include\c++\10.2.1\cmath ****     {
 908:c:\program files\daisytoolchain\arm-none-eabi\include\c++\10.2.1\cmath ****       typedef typename __gnu_cxx::__promote<_Tp>::__type __type;
 909:c:\program files\daisytoolchain\arm-none-eabi\include\c++\10.2.1\cmath ****       return __builtin_isgreaterequal(__type(__f1), __type(__f2));
 910:c:\program files\daisytoolchain\arm-none-eabi\include\c++\10.2.1\cmath ****     }
 911:c:\program files\daisytoolchain\arm-none-eabi\include\c++\10.2.1\cmath **** 
 912:c:\program files\daisytoolchain\arm-none-eabi\include\c++\10.2.1\cmath ****   template<typename _Tp>
 913:c:\program files\daisytoolchain\arm-none-eabi\include\c++\10.2.1\cmath ****     inline typename __gnu_cxx::__enable_if<__is_arithmetic<_Tp>::__value,
 914:c:\program files\daisytoolchain\arm-none-eabi\include\c++\10.2.1\cmath **** 					   int>::__type
 915:c:\program files\daisytoolchain\arm-none-eabi\include\c++\10.2.1\cmath ****     isless(_Tp __f1, _Tp __f2)
 916:c:\program files\daisytoolchain\arm-none-eabi\include\c++\10.2.1\cmath ****     {
 917:c:\program files\daisytoolchain\arm-none-eabi\include\c++\10.2.1\cmath ****       typedef typename __gnu_cxx::__promote<_Tp>::__type __type;
 918:c:\program files\daisytoolchain\arm-none-eabi\include\c++\10.2.1\cmath ****       return __builtin_isless(__type(__f1), __type(__f2));
 919:c:\program files\daisytoolchain\arm-none-eabi\include\c++\10.2.1\cmath ****     }
 920:c:\program files\daisytoolchain\arm-none-eabi\include\c++\10.2.1\cmath **** 
 921:c:\program files\daisytoolchain\arm-none-eabi\include\c++\10.2.1\cmath ****   template<typename _Tp>
 922:c:\program files\daisytoolchain\arm-none-eabi\include\c++\10.2.1\cmath ****     inline typename __gnu_cxx::__enable_if<__is_arithmetic<_Tp>::__value,
 923:c:\program files\daisytoolchain\arm-none-eabi\include\c++\10.2.1\cmath **** 					   int>::__type
 924:c:\program files\daisytoolchain\arm-none-eabi\include\c++\10.2.1\cmath ****     islessequal(_Tp __f1, _Tp __f2)
 925:c:\program files\daisytoolchain\arm-none-eabi\include\c++\10.2.1\cmath ****     {
 926:c:\program files\daisytoolchain\arm-none-eabi\include\c++\10.2.1\cmath ****       typedef typename __gnu_cxx::__promote<_Tp>::__type __type;
 927:c:\program files\daisytoolchain\arm-none-eabi\include\c++\10.2.1\cmath ****       return __builtin_islessequal(__type(__f1), __type(__f2));
 928:c:\program files\daisytoolchain\arm-none-eabi\include\c++\10.2.1\cmath ****     }
 929:c:\program files\daisytoolchain\arm-none-eabi\include\c++\10.2.1\cmath **** 
 930:c:\program files\daisytoolchain\arm-none-eabi\include\c++\10.2.1\cmath ****   template<typename _Tp>
 931:c:\program files\daisytoolchain\arm-none-eabi\include\c++\10.2.1\cmath ****     inline typename __gnu_cxx::__enable_if<__is_arithmetic<_Tp>::__value,
 932:c:\program files\daisytoolchain\arm-none-eabi\include\c++\10.2.1\cmath **** 					   int>::__type
 933:c:\program files\daisytoolchain\arm-none-eabi\include\c++\10.2.1\cmath ****     islessgreater(_Tp __f1, _Tp __f2)
 934:c:\program files\daisytoolchain\arm-none-eabi\include\c++\10.2.1\cmath ****     {
 935:c:\program files\daisytoolchain\arm-none-eabi\include\c++\10.2.1\cmath ****       typedef typename __gnu_cxx::__promote<_Tp>::__type __type;
 936:c:\program files\daisytoolchain\arm-none-eabi\include\c++\10.2.1\cmath ****       return __builtin_islessgreater(__type(__f1), __type(__f2));
 937:c:\program files\daisytoolchain\arm-none-eabi\include\c++\10.2.1\cmath ****     }
 938:c:\program files\daisytoolchain\arm-none-eabi\include\c++\10.2.1\cmath **** 
 939:c:\program files\daisytoolchain\arm-none-eabi\include\c++\10.2.1\cmath ****   template<typename _Tp>
 940:c:\program files\daisytoolchain\arm-none-eabi\include\c++\10.2.1\cmath ****     inline typename __gnu_cxx::__enable_if<__is_arithmetic<_Tp>::__value,
 941:c:\program files\daisytoolchain\arm-none-eabi\include\c++\10.2.1\cmath **** 					   int>::__type
 942:c:\program files\daisytoolchain\arm-none-eabi\include\c++\10.2.1\cmath ****     isunordered(_Tp __f1, _Tp __f2)
 943:c:\program files\daisytoolchain\arm-none-eabi\include\c++\10.2.1\cmath ****     {
 944:c:\program files\daisytoolchain\arm-none-eabi\include\c++\10.2.1\cmath ****       typedef typename __gnu_cxx::__promote<_Tp>::__type __type;
 945:c:\program files\daisytoolchain\arm-none-eabi\include\c++\10.2.1\cmath ****       return __builtin_isunordered(__type(__f1), __type(__f2));
 946:c:\program files\daisytoolchain\arm-none-eabi\include\c++\10.2.1\cmath ****     }
ARM GAS  C:\Users\hahnm\AppData\Local\Temp\cc4Pvs9Z.s 			page 20


 947:c:\program files\daisytoolchain\arm-none-eabi\include\c++\10.2.1\cmath **** 
 948:c:\program files\daisytoolchain\arm-none-eabi\include\c++\10.2.1\cmath **** #endif // C++11
 949:c:\program files\daisytoolchain\arm-none-eabi\include\c++\10.2.1\cmath **** #endif /* _GLIBCXX_USE_C99_FP_MACROS_DYNAMIC */
 950:c:\program files\daisytoolchain\arm-none-eabi\include\c++\10.2.1\cmath **** #endif /* _GLIBCXX_USE_C99_MATH */
 951:c:\program files\daisytoolchain\arm-none-eabi\include\c++\10.2.1\cmath **** 
 952:c:\program files\daisytoolchain\arm-none-eabi\include\c++\10.2.1\cmath **** #if __cplusplus >= 201103L
 953:c:\program files\daisytoolchain\arm-none-eabi\include\c++\10.2.1\cmath **** 
 954:c:\program files\daisytoolchain\arm-none-eabi\include\c++\10.2.1\cmath **** #ifdef _GLIBCXX_USE_C99_MATH_TR1
 955:c:\program files\daisytoolchain\arm-none-eabi\include\c++\10.2.1\cmath **** 
 956:c:\program files\daisytoolchain\arm-none-eabi\include\c++\10.2.1\cmath **** #undef acosh
 957:c:\program files\daisytoolchain\arm-none-eabi\include\c++\10.2.1\cmath **** #undef acoshf
 958:c:\program files\daisytoolchain\arm-none-eabi\include\c++\10.2.1\cmath **** #undef acoshl
 959:c:\program files\daisytoolchain\arm-none-eabi\include\c++\10.2.1\cmath **** #undef asinh
 960:c:\program files\daisytoolchain\arm-none-eabi\include\c++\10.2.1\cmath **** #undef asinhf
 961:c:\program files\daisytoolchain\arm-none-eabi\include\c++\10.2.1\cmath **** #undef asinhl
 962:c:\program files\daisytoolchain\arm-none-eabi\include\c++\10.2.1\cmath **** #undef atanh
 963:c:\program files\daisytoolchain\arm-none-eabi\include\c++\10.2.1\cmath **** #undef atanhf
 964:c:\program files\daisytoolchain\arm-none-eabi\include\c++\10.2.1\cmath **** #undef atanhl
 965:c:\program files\daisytoolchain\arm-none-eabi\include\c++\10.2.1\cmath **** #undef cbrt
 966:c:\program files\daisytoolchain\arm-none-eabi\include\c++\10.2.1\cmath **** #undef cbrtf
 967:c:\program files\daisytoolchain\arm-none-eabi\include\c++\10.2.1\cmath **** #undef cbrtl
 968:c:\program files\daisytoolchain\arm-none-eabi\include\c++\10.2.1\cmath **** #undef copysign
 969:c:\program files\daisytoolchain\arm-none-eabi\include\c++\10.2.1\cmath **** #undef copysignf
 970:c:\program files\daisytoolchain\arm-none-eabi\include\c++\10.2.1\cmath **** #undef copysignl
 971:c:\program files\daisytoolchain\arm-none-eabi\include\c++\10.2.1\cmath **** #undef erf
 972:c:\program files\daisytoolchain\arm-none-eabi\include\c++\10.2.1\cmath **** #undef erff
 973:c:\program files\daisytoolchain\arm-none-eabi\include\c++\10.2.1\cmath **** #undef erfl
 974:c:\program files\daisytoolchain\arm-none-eabi\include\c++\10.2.1\cmath **** #undef erfc
 975:c:\program files\daisytoolchain\arm-none-eabi\include\c++\10.2.1\cmath **** #undef erfcf
 976:c:\program files\daisytoolchain\arm-none-eabi\include\c++\10.2.1\cmath **** #undef erfcl
 977:c:\program files\daisytoolchain\arm-none-eabi\include\c++\10.2.1\cmath **** #undef exp2
 978:c:\program files\daisytoolchain\arm-none-eabi\include\c++\10.2.1\cmath **** #undef exp2f
 979:c:\program files\daisytoolchain\arm-none-eabi\include\c++\10.2.1\cmath **** #undef exp2l
 980:c:\program files\daisytoolchain\arm-none-eabi\include\c++\10.2.1\cmath **** #undef expm1
 981:c:\program files\daisytoolchain\arm-none-eabi\include\c++\10.2.1\cmath **** #undef expm1f
 982:c:\program files\daisytoolchain\arm-none-eabi\include\c++\10.2.1\cmath **** #undef expm1l
 983:c:\program files\daisytoolchain\arm-none-eabi\include\c++\10.2.1\cmath **** #undef fdim
 984:c:\program files\daisytoolchain\arm-none-eabi\include\c++\10.2.1\cmath **** #undef fdimf
 985:c:\program files\daisytoolchain\arm-none-eabi\include\c++\10.2.1\cmath **** #undef fdiml
 986:c:\program files\daisytoolchain\arm-none-eabi\include\c++\10.2.1\cmath **** #undef fma
 987:c:\program files\daisytoolchain\arm-none-eabi\include\c++\10.2.1\cmath **** #undef fmaf
 988:c:\program files\daisytoolchain\arm-none-eabi\include\c++\10.2.1\cmath **** #undef fmal
 989:c:\program files\daisytoolchain\arm-none-eabi\include\c++\10.2.1\cmath **** #undef fmax
 990:c:\program files\daisytoolchain\arm-none-eabi\include\c++\10.2.1\cmath **** #undef fmaxf
 991:c:\program files\daisytoolchain\arm-none-eabi\include\c++\10.2.1\cmath **** #undef fmaxl
 992:c:\program files\daisytoolchain\arm-none-eabi\include\c++\10.2.1\cmath **** #undef fmin
 993:c:\program files\daisytoolchain\arm-none-eabi\include\c++\10.2.1\cmath **** #undef fminf
 994:c:\program files\daisytoolchain\arm-none-eabi\include\c++\10.2.1\cmath **** #undef fminl
 995:c:\program files\daisytoolchain\arm-none-eabi\include\c++\10.2.1\cmath **** #undef hypot
 996:c:\program files\daisytoolchain\arm-none-eabi\include\c++\10.2.1\cmath **** #undef hypotf
 997:c:\program files\daisytoolchain\arm-none-eabi\include\c++\10.2.1\cmath **** #undef hypotl
 998:c:\program files\daisytoolchain\arm-none-eabi\include\c++\10.2.1\cmath **** #undef ilogb
 999:c:\program files\daisytoolchain\arm-none-eabi\include\c++\10.2.1\cmath **** #undef ilogbf
1000:c:\program files\daisytoolchain\arm-none-eabi\include\c++\10.2.1\cmath **** #undef ilogbl
1001:c:\program files\daisytoolchain\arm-none-eabi\include\c++\10.2.1\cmath **** #undef lgamma
1002:c:\program files\daisytoolchain\arm-none-eabi\include\c++\10.2.1\cmath **** #undef lgammaf
1003:c:\program files\daisytoolchain\arm-none-eabi\include\c++\10.2.1\cmath **** #undef lgammal
ARM GAS  C:\Users\hahnm\AppData\Local\Temp\cc4Pvs9Z.s 			page 21


1004:c:\program files\daisytoolchain\arm-none-eabi\include\c++\10.2.1\cmath **** #ifndef _GLIBCXX_NO_C99_ROUNDING_FUNCS
1005:c:\program files\daisytoolchain\arm-none-eabi\include\c++\10.2.1\cmath **** #undef llrint
1006:c:\program files\daisytoolchain\arm-none-eabi\include\c++\10.2.1\cmath **** #undef llrintf
1007:c:\program files\daisytoolchain\arm-none-eabi\include\c++\10.2.1\cmath **** #undef llrintl
1008:c:\program files\daisytoolchain\arm-none-eabi\include\c++\10.2.1\cmath **** #undef llround
1009:c:\program files\daisytoolchain\arm-none-eabi\include\c++\10.2.1\cmath **** #undef llroundf
1010:c:\program files\daisytoolchain\arm-none-eabi\include\c++\10.2.1\cmath **** #undef llroundl
1011:c:\program files\daisytoolchain\arm-none-eabi\include\c++\10.2.1\cmath **** #endif
1012:c:\program files\daisytoolchain\arm-none-eabi\include\c++\10.2.1\cmath **** #undef log1p
1013:c:\program files\daisytoolchain\arm-none-eabi\include\c++\10.2.1\cmath **** #undef log1pf
1014:c:\program files\daisytoolchain\arm-none-eabi\include\c++\10.2.1\cmath **** #undef log1pl
1015:c:\program files\daisytoolchain\arm-none-eabi\include\c++\10.2.1\cmath **** #undef log2
1016:c:\program files\daisytoolchain\arm-none-eabi\include\c++\10.2.1\cmath **** #undef log2f
1017:c:\program files\daisytoolchain\arm-none-eabi\include\c++\10.2.1\cmath **** #undef log2l
1018:c:\program files\daisytoolchain\arm-none-eabi\include\c++\10.2.1\cmath **** #undef logb
1019:c:\program files\daisytoolchain\arm-none-eabi\include\c++\10.2.1\cmath **** #undef logbf
1020:c:\program files\daisytoolchain\arm-none-eabi\include\c++\10.2.1\cmath **** #undef logbl
1021:c:\program files\daisytoolchain\arm-none-eabi\include\c++\10.2.1\cmath **** #undef lrint
1022:c:\program files\daisytoolchain\arm-none-eabi\include\c++\10.2.1\cmath **** #undef lrintf
1023:c:\program files\daisytoolchain\arm-none-eabi\include\c++\10.2.1\cmath **** #undef lrintl
1024:c:\program files\daisytoolchain\arm-none-eabi\include\c++\10.2.1\cmath **** #undef lround
1025:c:\program files\daisytoolchain\arm-none-eabi\include\c++\10.2.1\cmath **** #undef lroundf
1026:c:\program files\daisytoolchain\arm-none-eabi\include\c++\10.2.1\cmath **** #undef lroundl
1027:c:\program files\daisytoolchain\arm-none-eabi\include\c++\10.2.1\cmath **** #undef nan
1028:c:\program files\daisytoolchain\arm-none-eabi\include\c++\10.2.1\cmath **** #undef nanf
1029:c:\program files\daisytoolchain\arm-none-eabi\include\c++\10.2.1\cmath **** #undef nanl
1030:c:\program files\daisytoolchain\arm-none-eabi\include\c++\10.2.1\cmath **** #undef nearbyint
1031:c:\program files\daisytoolchain\arm-none-eabi\include\c++\10.2.1\cmath **** #undef nearbyintf
1032:c:\program files\daisytoolchain\arm-none-eabi\include\c++\10.2.1\cmath **** #undef nearbyintl
1033:c:\program files\daisytoolchain\arm-none-eabi\include\c++\10.2.1\cmath **** #undef nextafter
1034:c:\program files\daisytoolchain\arm-none-eabi\include\c++\10.2.1\cmath **** #undef nextafterf
1035:c:\program files\daisytoolchain\arm-none-eabi\include\c++\10.2.1\cmath **** #undef nextafterl
1036:c:\program files\daisytoolchain\arm-none-eabi\include\c++\10.2.1\cmath **** #undef nexttoward
1037:c:\program files\daisytoolchain\arm-none-eabi\include\c++\10.2.1\cmath **** #undef nexttowardf
1038:c:\program files\daisytoolchain\arm-none-eabi\include\c++\10.2.1\cmath **** #undef nexttowardl
1039:c:\program files\daisytoolchain\arm-none-eabi\include\c++\10.2.1\cmath **** #undef remainder
1040:c:\program files\daisytoolchain\arm-none-eabi\include\c++\10.2.1\cmath **** #undef remainderf
1041:c:\program files\daisytoolchain\arm-none-eabi\include\c++\10.2.1\cmath **** #undef remainderl
1042:c:\program files\daisytoolchain\arm-none-eabi\include\c++\10.2.1\cmath **** #undef remquo
1043:c:\program files\daisytoolchain\arm-none-eabi\include\c++\10.2.1\cmath **** #undef remquof
1044:c:\program files\daisytoolchain\arm-none-eabi\include\c++\10.2.1\cmath **** #undef remquol
1045:c:\program files\daisytoolchain\arm-none-eabi\include\c++\10.2.1\cmath **** #undef rint
1046:c:\program files\daisytoolchain\arm-none-eabi\include\c++\10.2.1\cmath **** #undef rintf
1047:c:\program files\daisytoolchain\arm-none-eabi\include\c++\10.2.1\cmath **** #undef rintl
1048:c:\program files\daisytoolchain\arm-none-eabi\include\c++\10.2.1\cmath **** #undef round
1049:c:\program files\daisytoolchain\arm-none-eabi\include\c++\10.2.1\cmath **** #undef roundf
1050:c:\program files\daisytoolchain\arm-none-eabi\include\c++\10.2.1\cmath **** #undef roundl
1051:c:\program files\daisytoolchain\arm-none-eabi\include\c++\10.2.1\cmath **** #undef scalbln
1052:c:\program files\daisytoolchain\arm-none-eabi\include\c++\10.2.1\cmath **** #undef scalblnf
1053:c:\program files\daisytoolchain\arm-none-eabi\include\c++\10.2.1\cmath **** #undef scalblnl
1054:c:\program files\daisytoolchain\arm-none-eabi\include\c++\10.2.1\cmath **** #undef scalbn
1055:c:\program files\daisytoolchain\arm-none-eabi\include\c++\10.2.1\cmath **** #undef scalbnf
1056:c:\program files\daisytoolchain\arm-none-eabi\include\c++\10.2.1\cmath **** #undef scalbnl
1057:c:\program files\daisytoolchain\arm-none-eabi\include\c++\10.2.1\cmath **** #undef tgamma
1058:c:\program files\daisytoolchain\arm-none-eabi\include\c++\10.2.1\cmath **** #undef tgammaf
1059:c:\program files\daisytoolchain\arm-none-eabi\include\c++\10.2.1\cmath **** #undef tgammal
1060:c:\program files\daisytoolchain\arm-none-eabi\include\c++\10.2.1\cmath **** #undef trunc
ARM GAS  C:\Users\hahnm\AppData\Local\Temp\cc4Pvs9Z.s 			page 22


1061:c:\program files\daisytoolchain\arm-none-eabi\include\c++\10.2.1\cmath **** #undef truncf
1062:c:\program files\daisytoolchain\arm-none-eabi\include\c++\10.2.1\cmath **** #undef truncl
1063:c:\program files\daisytoolchain\arm-none-eabi\include\c++\10.2.1\cmath **** 
1064:c:\program files\daisytoolchain\arm-none-eabi\include\c++\10.2.1\cmath ****   // types
1065:c:\program files\daisytoolchain\arm-none-eabi\include\c++\10.2.1\cmath ****   using ::double_t;
1066:c:\program files\daisytoolchain\arm-none-eabi\include\c++\10.2.1\cmath ****   using ::float_t;
1067:c:\program files\daisytoolchain\arm-none-eabi\include\c++\10.2.1\cmath **** 
1068:c:\program files\daisytoolchain\arm-none-eabi\include\c++\10.2.1\cmath ****   // functions
1069:c:\program files\daisytoolchain\arm-none-eabi\include\c++\10.2.1\cmath ****   using ::acosh;
1070:c:\program files\daisytoolchain\arm-none-eabi\include\c++\10.2.1\cmath ****   using ::acoshf;
1071:c:\program files\daisytoolchain\arm-none-eabi\include\c++\10.2.1\cmath ****   using ::acoshl;
1072:c:\program files\daisytoolchain\arm-none-eabi\include\c++\10.2.1\cmath **** 
1073:c:\program files\daisytoolchain\arm-none-eabi\include\c++\10.2.1\cmath ****   using ::asinh;
1074:c:\program files\daisytoolchain\arm-none-eabi\include\c++\10.2.1\cmath ****   using ::asinhf;
1075:c:\program files\daisytoolchain\arm-none-eabi\include\c++\10.2.1\cmath ****   using ::asinhl;
1076:c:\program files\daisytoolchain\arm-none-eabi\include\c++\10.2.1\cmath **** 
1077:c:\program files\daisytoolchain\arm-none-eabi\include\c++\10.2.1\cmath ****   using ::atanh;
1078:c:\program files\daisytoolchain\arm-none-eabi\include\c++\10.2.1\cmath ****   using ::atanhf;
1079:c:\program files\daisytoolchain\arm-none-eabi\include\c++\10.2.1\cmath ****   using ::atanhl;
1080:c:\program files\daisytoolchain\arm-none-eabi\include\c++\10.2.1\cmath **** 
1081:c:\program files\daisytoolchain\arm-none-eabi\include\c++\10.2.1\cmath ****   using ::cbrt;
1082:c:\program files\daisytoolchain\arm-none-eabi\include\c++\10.2.1\cmath ****   using ::cbrtf;
1083:c:\program files\daisytoolchain\arm-none-eabi\include\c++\10.2.1\cmath ****   using ::cbrtl;
1084:c:\program files\daisytoolchain\arm-none-eabi\include\c++\10.2.1\cmath **** 
1085:c:\program files\daisytoolchain\arm-none-eabi\include\c++\10.2.1\cmath ****   using ::copysign;
1086:c:\program files\daisytoolchain\arm-none-eabi\include\c++\10.2.1\cmath ****   using ::copysignf;
1087:c:\program files\daisytoolchain\arm-none-eabi\include\c++\10.2.1\cmath ****   using ::copysignl;
1088:c:\program files\daisytoolchain\arm-none-eabi\include\c++\10.2.1\cmath **** 
1089:c:\program files\daisytoolchain\arm-none-eabi\include\c++\10.2.1\cmath ****   using ::erf;
1090:c:\program files\daisytoolchain\arm-none-eabi\include\c++\10.2.1\cmath ****   using ::erff;
1091:c:\program files\daisytoolchain\arm-none-eabi\include\c++\10.2.1\cmath ****   using ::erfl;
1092:c:\program files\daisytoolchain\arm-none-eabi\include\c++\10.2.1\cmath **** 
1093:c:\program files\daisytoolchain\arm-none-eabi\include\c++\10.2.1\cmath ****   using ::erfc;
1094:c:\program files\daisytoolchain\arm-none-eabi\include\c++\10.2.1\cmath ****   using ::erfcf;
1095:c:\program files\daisytoolchain\arm-none-eabi\include\c++\10.2.1\cmath ****   using ::erfcl;
1096:c:\program files\daisytoolchain\arm-none-eabi\include\c++\10.2.1\cmath **** 
1097:c:\program files\daisytoolchain\arm-none-eabi\include\c++\10.2.1\cmath ****   using ::exp2;
1098:c:\program files\daisytoolchain\arm-none-eabi\include\c++\10.2.1\cmath ****   using ::exp2f;
1099:c:\program files\daisytoolchain\arm-none-eabi\include\c++\10.2.1\cmath ****   using ::exp2l;
1100:c:\program files\daisytoolchain\arm-none-eabi\include\c++\10.2.1\cmath **** 
1101:c:\program files\daisytoolchain\arm-none-eabi\include\c++\10.2.1\cmath ****   using ::expm1;
1102:c:\program files\daisytoolchain\arm-none-eabi\include\c++\10.2.1\cmath ****   using ::expm1f;
1103:c:\program files\daisytoolchain\arm-none-eabi\include\c++\10.2.1\cmath ****   using ::expm1l;
1104:c:\program files\daisytoolchain\arm-none-eabi\include\c++\10.2.1\cmath **** 
1105:c:\program files\daisytoolchain\arm-none-eabi\include\c++\10.2.1\cmath ****   using ::fdim;
1106:c:\program files\daisytoolchain\arm-none-eabi\include\c++\10.2.1\cmath ****   using ::fdimf;
1107:c:\program files\daisytoolchain\arm-none-eabi\include\c++\10.2.1\cmath ****   using ::fdiml;
1108:c:\program files\daisytoolchain\arm-none-eabi\include\c++\10.2.1\cmath **** 
1109:c:\program files\daisytoolchain\arm-none-eabi\include\c++\10.2.1\cmath ****   using ::fma;
1110:c:\program files\daisytoolchain\arm-none-eabi\include\c++\10.2.1\cmath ****   using ::fmaf;
1111:c:\program files\daisytoolchain\arm-none-eabi\include\c++\10.2.1\cmath ****   using ::fmal;
1112:c:\program files\daisytoolchain\arm-none-eabi\include\c++\10.2.1\cmath **** 
1113:c:\program files\daisytoolchain\arm-none-eabi\include\c++\10.2.1\cmath ****   using ::fmax;
1114:c:\program files\daisytoolchain\arm-none-eabi\include\c++\10.2.1\cmath ****   using ::fmaxf;
1115:c:\program files\daisytoolchain\arm-none-eabi\include\c++\10.2.1\cmath ****   using ::fmaxl;
1116:c:\program files\daisytoolchain\arm-none-eabi\include\c++\10.2.1\cmath **** 
1117:c:\program files\daisytoolchain\arm-none-eabi\include\c++\10.2.1\cmath ****   using ::fmin;
ARM GAS  C:\Users\hahnm\AppData\Local\Temp\cc4Pvs9Z.s 			page 23


1118:c:\program files\daisytoolchain\arm-none-eabi\include\c++\10.2.1\cmath ****   using ::fminf;
1119:c:\program files\daisytoolchain\arm-none-eabi\include\c++\10.2.1\cmath ****   using ::fminl;
1120:c:\program files\daisytoolchain\arm-none-eabi\include\c++\10.2.1\cmath **** 
1121:c:\program files\daisytoolchain\arm-none-eabi\include\c++\10.2.1\cmath ****   using ::hypot;
1122:c:\program files\daisytoolchain\arm-none-eabi\include\c++\10.2.1\cmath ****   using ::hypotf;
1123:c:\program files\daisytoolchain\arm-none-eabi\include\c++\10.2.1\cmath ****   using ::hypotl;
1124:c:\program files\daisytoolchain\arm-none-eabi\include\c++\10.2.1\cmath **** 
1125:c:\program files\daisytoolchain\arm-none-eabi\include\c++\10.2.1\cmath ****   using ::ilogb;
1126:c:\program files\daisytoolchain\arm-none-eabi\include\c++\10.2.1\cmath ****   using ::ilogbf;
1127:c:\program files\daisytoolchain\arm-none-eabi\include\c++\10.2.1\cmath ****   using ::ilogbl;
1128:c:\program files\daisytoolchain\arm-none-eabi\include\c++\10.2.1\cmath **** 
1129:c:\program files\daisytoolchain\arm-none-eabi\include\c++\10.2.1\cmath ****   using ::lgamma;
1130:c:\program files\daisytoolchain\arm-none-eabi\include\c++\10.2.1\cmath ****   using ::lgammaf;
1131:c:\program files\daisytoolchain\arm-none-eabi\include\c++\10.2.1\cmath ****   using ::lgammal;
1132:c:\program files\daisytoolchain\arm-none-eabi\include\c++\10.2.1\cmath **** 
1133:c:\program files\daisytoolchain\arm-none-eabi\include\c++\10.2.1\cmath **** #ifndef _GLIBCXX_NO_C99_ROUNDING_FUNCS
1134:c:\program files\daisytoolchain\arm-none-eabi\include\c++\10.2.1\cmath ****   using ::llrint;
1135:c:\program files\daisytoolchain\arm-none-eabi\include\c++\10.2.1\cmath ****   using ::llrintf;
1136:c:\program files\daisytoolchain\arm-none-eabi\include\c++\10.2.1\cmath ****   using ::llrintl;
1137:c:\program files\daisytoolchain\arm-none-eabi\include\c++\10.2.1\cmath **** 
1138:c:\program files\daisytoolchain\arm-none-eabi\include\c++\10.2.1\cmath ****   using ::llround;
1139:c:\program files\daisytoolchain\arm-none-eabi\include\c++\10.2.1\cmath ****   using ::llroundf;
1140:c:\program files\daisytoolchain\arm-none-eabi\include\c++\10.2.1\cmath ****   using ::llroundl;
1141:c:\program files\daisytoolchain\arm-none-eabi\include\c++\10.2.1\cmath **** #endif
1142:c:\program files\daisytoolchain\arm-none-eabi\include\c++\10.2.1\cmath **** 
1143:c:\program files\daisytoolchain\arm-none-eabi\include\c++\10.2.1\cmath ****   using ::log1p;
1144:c:\program files\daisytoolchain\arm-none-eabi\include\c++\10.2.1\cmath ****   using ::log1pf;
1145:c:\program files\daisytoolchain\arm-none-eabi\include\c++\10.2.1\cmath ****   using ::log1pl;
1146:c:\program files\daisytoolchain\arm-none-eabi\include\c++\10.2.1\cmath **** 
1147:c:\program files\daisytoolchain\arm-none-eabi\include\c++\10.2.1\cmath ****   using ::log2;
1148:c:\program files\daisytoolchain\arm-none-eabi\include\c++\10.2.1\cmath ****   using ::log2f;
1149:c:\program files\daisytoolchain\arm-none-eabi\include\c++\10.2.1\cmath ****   using ::log2l;
1150:c:\program files\daisytoolchain\arm-none-eabi\include\c++\10.2.1\cmath **** 
1151:c:\program files\daisytoolchain\arm-none-eabi\include\c++\10.2.1\cmath ****   using ::logb;
1152:c:\program files\daisytoolchain\arm-none-eabi\include\c++\10.2.1\cmath ****   using ::logbf;
1153:c:\program files\daisytoolchain\arm-none-eabi\include\c++\10.2.1\cmath ****   using ::logbl;
1154:c:\program files\daisytoolchain\arm-none-eabi\include\c++\10.2.1\cmath **** 
1155:c:\program files\daisytoolchain\arm-none-eabi\include\c++\10.2.1\cmath ****   using ::lrint;
1156:c:\program files\daisytoolchain\arm-none-eabi\include\c++\10.2.1\cmath ****   using ::lrintf;
1157:c:\program files\daisytoolchain\arm-none-eabi\include\c++\10.2.1\cmath ****   using ::lrintl;
1158:c:\program files\daisytoolchain\arm-none-eabi\include\c++\10.2.1\cmath **** 
1159:c:\program files\daisytoolchain\arm-none-eabi\include\c++\10.2.1\cmath ****   using ::lround;
1160:c:\program files\daisytoolchain\arm-none-eabi\include\c++\10.2.1\cmath ****   using ::lroundf;
1161:c:\program files\daisytoolchain\arm-none-eabi\include\c++\10.2.1\cmath ****   using ::lroundl;
1162:c:\program files\daisytoolchain\arm-none-eabi\include\c++\10.2.1\cmath **** 
1163:c:\program files\daisytoolchain\arm-none-eabi\include\c++\10.2.1\cmath ****   using ::nan;
1164:c:\program files\daisytoolchain\arm-none-eabi\include\c++\10.2.1\cmath ****   using ::nanf;
1165:c:\program files\daisytoolchain\arm-none-eabi\include\c++\10.2.1\cmath ****   using ::nanl;
1166:c:\program files\daisytoolchain\arm-none-eabi\include\c++\10.2.1\cmath **** 
1167:c:\program files\daisytoolchain\arm-none-eabi\include\c++\10.2.1\cmath ****   using ::nearbyint;
1168:c:\program files\daisytoolchain\arm-none-eabi\include\c++\10.2.1\cmath ****   using ::nearbyintf;
1169:c:\program files\daisytoolchain\arm-none-eabi\include\c++\10.2.1\cmath ****   using ::nearbyintl;
1170:c:\program files\daisytoolchain\arm-none-eabi\include\c++\10.2.1\cmath **** 
1171:c:\program files\daisytoolchain\arm-none-eabi\include\c++\10.2.1\cmath ****   using ::nextafter;
1172:c:\program files\daisytoolchain\arm-none-eabi\include\c++\10.2.1\cmath ****   using ::nextafterf;
1173:c:\program files\daisytoolchain\arm-none-eabi\include\c++\10.2.1\cmath ****   using ::nextafterl;
1174:c:\program files\daisytoolchain\arm-none-eabi\include\c++\10.2.1\cmath **** 
ARM GAS  C:\Users\hahnm\AppData\Local\Temp\cc4Pvs9Z.s 			page 24


1175:c:\program files\daisytoolchain\arm-none-eabi\include\c++\10.2.1\cmath ****   using ::nexttoward;
1176:c:\program files\daisytoolchain\arm-none-eabi\include\c++\10.2.1\cmath ****   using ::nexttowardf;
1177:c:\program files\daisytoolchain\arm-none-eabi\include\c++\10.2.1\cmath ****   using ::nexttowardl;
1178:c:\program files\daisytoolchain\arm-none-eabi\include\c++\10.2.1\cmath **** 
1179:c:\program files\daisytoolchain\arm-none-eabi\include\c++\10.2.1\cmath ****   using ::remainder;
1180:c:\program files\daisytoolchain\arm-none-eabi\include\c++\10.2.1\cmath ****   using ::remainderf;
1181:c:\program files\daisytoolchain\arm-none-eabi\include\c++\10.2.1\cmath ****   using ::remainderl;
1182:c:\program files\daisytoolchain\arm-none-eabi\include\c++\10.2.1\cmath **** 
1183:c:\program files\daisytoolchain\arm-none-eabi\include\c++\10.2.1\cmath ****   using ::remquo;
1184:c:\program files\daisytoolchain\arm-none-eabi\include\c++\10.2.1\cmath ****   using ::remquof;
1185:c:\program files\daisytoolchain\arm-none-eabi\include\c++\10.2.1\cmath ****   using ::remquol;
1186:c:\program files\daisytoolchain\arm-none-eabi\include\c++\10.2.1\cmath **** 
1187:c:\program files\daisytoolchain\arm-none-eabi\include\c++\10.2.1\cmath ****   using ::rint;
1188:c:\program files\daisytoolchain\arm-none-eabi\include\c++\10.2.1\cmath ****   using ::rintf;
1189:c:\program files\daisytoolchain\arm-none-eabi\include\c++\10.2.1\cmath ****   using ::rintl;
1190:c:\program files\daisytoolchain\arm-none-eabi\include\c++\10.2.1\cmath **** 
1191:c:\program files\daisytoolchain\arm-none-eabi\include\c++\10.2.1\cmath ****   using ::round;
1192:c:\program files\daisytoolchain\arm-none-eabi\include\c++\10.2.1\cmath ****   using ::roundf;
1193:c:\program files\daisytoolchain\arm-none-eabi\include\c++\10.2.1\cmath ****   using ::roundl;
1194:c:\program files\daisytoolchain\arm-none-eabi\include\c++\10.2.1\cmath **** 
1195:c:\program files\daisytoolchain\arm-none-eabi\include\c++\10.2.1\cmath ****   using ::scalbln;
1196:c:\program files\daisytoolchain\arm-none-eabi\include\c++\10.2.1\cmath ****   using ::scalblnf;
1197:c:\program files\daisytoolchain\arm-none-eabi\include\c++\10.2.1\cmath ****   using ::scalblnl;
1198:c:\program files\daisytoolchain\arm-none-eabi\include\c++\10.2.1\cmath **** 
1199:c:\program files\daisytoolchain\arm-none-eabi\include\c++\10.2.1\cmath ****   using ::scalbn;
1200:c:\program files\daisytoolchain\arm-none-eabi\include\c++\10.2.1\cmath ****   using ::scalbnf;
1201:c:\program files\daisytoolchain\arm-none-eabi\include\c++\10.2.1\cmath ****   using ::scalbnl;
1202:c:\program files\daisytoolchain\arm-none-eabi\include\c++\10.2.1\cmath **** 
1203:c:\program files\daisytoolchain\arm-none-eabi\include\c++\10.2.1\cmath ****   using ::tgamma;
1204:c:\program files\daisytoolchain\arm-none-eabi\include\c++\10.2.1\cmath ****   using ::tgammaf;
1205:c:\program files\daisytoolchain\arm-none-eabi\include\c++\10.2.1\cmath ****   using ::tgammal;
1206:c:\program files\daisytoolchain\arm-none-eabi\include\c++\10.2.1\cmath **** 
1207:c:\program files\daisytoolchain\arm-none-eabi\include\c++\10.2.1\cmath ****   using ::trunc;
1208:c:\program files\daisytoolchain\arm-none-eabi\include\c++\10.2.1\cmath ****   using ::truncf;
1209:c:\program files\daisytoolchain\arm-none-eabi\include\c++\10.2.1\cmath ****   using ::truncl;
1210:c:\program files\daisytoolchain\arm-none-eabi\include\c++\10.2.1\cmath **** 
1211:c:\program files\daisytoolchain\arm-none-eabi\include\c++\10.2.1\cmath ****   /// Additional overloads.
1212:c:\program files\daisytoolchain\arm-none-eabi\include\c++\10.2.1\cmath **** #ifndef __CORRECT_ISO_CPP11_MATH_H_PROTO_FP
1213:c:\program files\daisytoolchain\arm-none-eabi\include\c++\10.2.1\cmath ****   constexpr float
1214:c:\program files\daisytoolchain\arm-none-eabi\include\c++\10.2.1\cmath ****   acosh(float __x)
1215:c:\program files\daisytoolchain\arm-none-eabi\include\c++\10.2.1\cmath ****   { return __builtin_acoshf(__x); }
1216:c:\program files\daisytoolchain\arm-none-eabi\include\c++\10.2.1\cmath **** 
1217:c:\program files\daisytoolchain\arm-none-eabi\include\c++\10.2.1\cmath ****   constexpr long double
1218:c:\program files\daisytoolchain\arm-none-eabi\include\c++\10.2.1\cmath ****   acosh(long double __x)
1219:c:\program files\daisytoolchain\arm-none-eabi\include\c++\10.2.1\cmath ****   { return __builtin_acoshl(__x); }
1220:c:\program files\daisytoolchain\arm-none-eabi\include\c++\10.2.1\cmath **** #endif
1221:c:\program files\daisytoolchain\arm-none-eabi\include\c++\10.2.1\cmath **** 
1222:c:\program files\daisytoolchain\arm-none-eabi\include\c++\10.2.1\cmath **** #ifndef __CORRECT_ISO_CPP11_MATH_H_PROTO_INT
1223:c:\program files\daisytoolchain\arm-none-eabi\include\c++\10.2.1\cmath ****   template<typename _Tp>
1224:c:\program files\daisytoolchain\arm-none-eabi\include\c++\10.2.1\cmath ****     constexpr typename __gnu_cxx::__enable_if<__is_integer<_Tp>::__value, 
1225:c:\program files\daisytoolchain\arm-none-eabi\include\c++\10.2.1\cmath ****                                               double>::__type
1226:c:\program files\daisytoolchain\arm-none-eabi\include\c++\10.2.1\cmath ****     acosh(_Tp __x)
1227:c:\program files\daisytoolchain\arm-none-eabi\include\c++\10.2.1\cmath ****     { return __builtin_acosh(__x); }
1228:c:\program files\daisytoolchain\arm-none-eabi\include\c++\10.2.1\cmath **** #endif
1229:c:\program files\daisytoolchain\arm-none-eabi\include\c++\10.2.1\cmath **** 
1230:c:\program files\daisytoolchain\arm-none-eabi\include\c++\10.2.1\cmath **** #ifndef __CORRECT_ISO_CPP11_MATH_H_PROTO_FP
1231:c:\program files\daisytoolchain\arm-none-eabi\include\c++\10.2.1\cmath ****   constexpr float
ARM GAS  C:\Users\hahnm\AppData\Local\Temp\cc4Pvs9Z.s 			page 25


1232:c:\program files\daisytoolchain\arm-none-eabi\include\c++\10.2.1\cmath ****   asinh(float __x)
1233:c:\program files\daisytoolchain\arm-none-eabi\include\c++\10.2.1\cmath ****   { return __builtin_asinhf(__x); }
1234:c:\program files\daisytoolchain\arm-none-eabi\include\c++\10.2.1\cmath **** 
1235:c:\program files\daisytoolchain\arm-none-eabi\include\c++\10.2.1\cmath ****   constexpr long double
1236:c:\program files\daisytoolchain\arm-none-eabi\include\c++\10.2.1\cmath ****   asinh(long double __x)
1237:c:\program files\daisytoolchain\arm-none-eabi\include\c++\10.2.1\cmath ****   { return __builtin_asinhl(__x); }
1238:c:\program files\daisytoolchain\arm-none-eabi\include\c++\10.2.1\cmath **** #endif
1239:c:\program files\daisytoolchain\arm-none-eabi\include\c++\10.2.1\cmath **** 
1240:c:\program files\daisytoolchain\arm-none-eabi\include\c++\10.2.1\cmath **** #ifndef __CORRECT_ISO_CPP11_MATH_H_PROTO_INT
1241:c:\program files\daisytoolchain\arm-none-eabi\include\c++\10.2.1\cmath ****   template<typename _Tp>
1242:c:\program files\daisytoolchain\arm-none-eabi\include\c++\10.2.1\cmath ****     constexpr typename __gnu_cxx::__enable_if<__is_integer<_Tp>::__value, 
1243:c:\program files\daisytoolchain\arm-none-eabi\include\c++\10.2.1\cmath ****                                               double>::__type
1244:c:\program files\daisytoolchain\arm-none-eabi\include\c++\10.2.1\cmath ****     asinh(_Tp __x)
1245:c:\program files\daisytoolchain\arm-none-eabi\include\c++\10.2.1\cmath ****     { return __builtin_asinh(__x); }
1246:c:\program files\daisytoolchain\arm-none-eabi\include\c++\10.2.1\cmath **** #endif
1247:c:\program files\daisytoolchain\arm-none-eabi\include\c++\10.2.1\cmath **** 
1248:c:\program files\daisytoolchain\arm-none-eabi\include\c++\10.2.1\cmath **** #ifndef __CORRECT_ISO_CPP11_MATH_H_PROTO_FP
1249:c:\program files\daisytoolchain\arm-none-eabi\include\c++\10.2.1\cmath ****   constexpr float
1250:c:\program files\daisytoolchain\arm-none-eabi\include\c++\10.2.1\cmath ****   atanh(float __x)
1251:c:\program files\daisytoolchain\arm-none-eabi\include\c++\10.2.1\cmath ****   { return __builtin_atanhf(__x); }
1252:c:\program files\daisytoolchain\arm-none-eabi\include\c++\10.2.1\cmath **** 
1253:c:\program files\daisytoolchain\arm-none-eabi\include\c++\10.2.1\cmath ****   constexpr long double
1254:c:\program files\daisytoolchain\arm-none-eabi\include\c++\10.2.1\cmath ****   atanh(long double __x)
1255:c:\program files\daisytoolchain\arm-none-eabi\include\c++\10.2.1\cmath ****   { return __builtin_atanhl(__x); }
1256:c:\program files\daisytoolchain\arm-none-eabi\include\c++\10.2.1\cmath **** #endif
1257:c:\program files\daisytoolchain\arm-none-eabi\include\c++\10.2.1\cmath **** 
1258:c:\program files\daisytoolchain\arm-none-eabi\include\c++\10.2.1\cmath **** #ifndef __CORRECT_ISO_CPP11_MATH_H_PROTO_INT
1259:c:\program files\daisytoolchain\arm-none-eabi\include\c++\10.2.1\cmath ****   template<typename _Tp>
1260:c:\program files\daisytoolchain\arm-none-eabi\include\c++\10.2.1\cmath ****     constexpr typename __gnu_cxx::__enable_if<__is_integer<_Tp>::__value, 
1261:c:\program files\daisytoolchain\arm-none-eabi\include\c++\10.2.1\cmath ****                                               double>::__type
1262:c:\program files\daisytoolchain\arm-none-eabi\include\c++\10.2.1\cmath ****     atanh(_Tp __x)
1263:c:\program files\daisytoolchain\arm-none-eabi\include\c++\10.2.1\cmath ****     { return __builtin_atanh(__x); }
1264:c:\program files\daisytoolchain\arm-none-eabi\include\c++\10.2.1\cmath **** #endif
1265:c:\program files\daisytoolchain\arm-none-eabi\include\c++\10.2.1\cmath **** 
1266:c:\program files\daisytoolchain\arm-none-eabi\include\c++\10.2.1\cmath **** #ifndef __CORRECT_ISO_CPP11_MATH_H_PROTO_FP
1267:c:\program files\daisytoolchain\arm-none-eabi\include\c++\10.2.1\cmath ****   constexpr float
1268:c:\program files\daisytoolchain\arm-none-eabi\include\c++\10.2.1\cmath ****   cbrt(float __x)
1269:c:\program files\daisytoolchain\arm-none-eabi\include\c++\10.2.1\cmath ****   { return __builtin_cbrtf(__x); }
1270:c:\program files\daisytoolchain\arm-none-eabi\include\c++\10.2.1\cmath **** 
1271:c:\program files\daisytoolchain\arm-none-eabi\include\c++\10.2.1\cmath ****   constexpr long double
1272:c:\program files\daisytoolchain\arm-none-eabi\include\c++\10.2.1\cmath ****   cbrt(long double __x)
1273:c:\program files\daisytoolchain\arm-none-eabi\include\c++\10.2.1\cmath ****   { return __builtin_cbrtl(__x); }
1274:c:\program files\daisytoolchain\arm-none-eabi\include\c++\10.2.1\cmath **** #endif
1275:c:\program files\daisytoolchain\arm-none-eabi\include\c++\10.2.1\cmath **** 
1276:c:\program files\daisytoolchain\arm-none-eabi\include\c++\10.2.1\cmath **** #ifndef __CORRECT_ISO_CPP11_MATH_H_PROTO_INT
1277:c:\program files\daisytoolchain\arm-none-eabi\include\c++\10.2.1\cmath ****   template<typename _Tp>
1278:c:\program files\daisytoolchain\arm-none-eabi\include\c++\10.2.1\cmath ****     constexpr typename __gnu_cxx::__enable_if<__is_integer<_Tp>::__value, 
1279:c:\program files\daisytoolchain\arm-none-eabi\include\c++\10.2.1\cmath ****                                               double>::__type
1280:c:\program files\daisytoolchain\arm-none-eabi\include\c++\10.2.1\cmath ****     cbrt(_Tp __x)
1281:c:\program files\daisytoolchain\arm-none-eabi\include\c++\10.2.1\cmath ****     { return __builtin_cbrt(__x); }
1282:c:\program files\daisytoolchain\arm-none-eabi\include\c++\10.2.1\cmath **** #endif
1283:c:\program files\daisytoolchain\arm-none-eabi\include\c++\10.2.1\cmath **** 
1284:c:\program files\daisytoolchain\arm-none-eabi\include\c++\10.2.1\cmath **** #ifndef __CORRECT_ISO_CPP11_MATH_H_PROTO_FP
1285:c:\program files\daisytoolchain\arm-none-eabi\include\c++\10.2.1\cmath ****   constexpr float
1286:c:\program files\daisytoolchain\arm-none-eabi\include\c++\10.2.1\cmath ****   copysign(float __x, float __y)
1287:c:\program files\daisytoolchain\arm-none-eabi\include\c++\10.2.1\cmath ****   { return __builtin_copysignf(__x, __y); }
1288:c:\program files\daisytoolchain\arm-none-eabi\include\c++\10.2.1\cmath **** 
ARM GAS  C:\Users\hahnm\AppData\Local\Temp\cc4Pvs9Z.s 			page 26


1289:c:\program files\daisytoolchain\arm-none-eabi\include\c++\10.2.1\cmath ****   constexpr long double
1290:c:\program files\daisytoolchain\arm-none-eabi\include\c++\10.2.1\cmath ****   copysign(long double __x, long double __y)
1291:c:\program files\daisytoolchain\arm-none-eabi\include\c++\10.2.1\cmath ****   { return __builtin_copysignl(__x, __y); }
1292:c:\program files\daisytoolchain\arm-none-eabi\include\c++\10.2.1\cmath **** #endif
1293:c:\program files\daisytoolchain\arm-none-eabi\include\c++\10.2.1\cmath **** 
1294:c:\program files\daisytoolchain\arm-none-eabi\include\c++\10.2.1\cmath **** #ifndef __CORRECT_ISO_CPP11_MATH_H_PROTO_INT
1295:c:\program files\daisytoolchain\arm-none-eabi\include\c++\10.2.1\cmath ****   template<typename _Tp, typename _Up>
1296:c:\program files\daisytoolchain\arm-none-eabi\include\c++\10.2.1\cmath ****     constexpr typename __gnu_cxx::__promote_2<_Tp, _Up>::__type
1297:c:\program files\daisytoolchain\arm-none-eabi\include\c++\10.2.1\cmath ****     copysign(_Tp __x, _Up __y)
1298:c:\program files\daisytoolchain\arm-none-eabi\include\c++\10.2.1\cmath ****     {
1299:c:\program files\daisytoolchain\arm-none-eabi\include\c++\10.2.1\cmath ****       typedef typename __gnu_cxx::__promote_2<_Tp, _Up>::__type __type;
1300:c:\program files\daisytoolchain\arm-none-eabi\include\c++\10.2.1\cmath ****       return copysign(__type(__x), __type(__y));
1301:c:\program files\daisytoolchain\arm-none-eabi\include\c++\10.2.1\cmath ****     }
1302:c:\program files\daisytoolchain\arm-none-eabi\include\c++\10.2.1\cmath **** #endif
1303:c:\program files\daisytoolchain\arm-none-eabi\include\c++\10.2.1\cmath **** 
1304:c:\program files\daisytoolchain\arm-none-eabi\include\c++\10.2.1\cmath **** #ifndef __CORRECT_ISO_CPP11_MATH_H_PROTO_FP
1305:c:\program files\daisytoolchain\arm-none-eabi\include\c++\10.2.1\cmath ****   constexpr float
1306:c:\program files\daisytoolchain\arm-none-eabi\include\c++\10.2.1\cmath ****   erf(float __x)
1307:c:\program files\daisytoolchain\arm-none-eabi\include\c++\10.2.1\cmath ****   { return __builtin_erff(__x); }
1308:c:\program files\daisytoolchain\arm-none-eabi\include\c++\10.2.1\cmath **** 
1309:c:\program files\daisytoolchain\arm-none-eabi\include\c++\10.2.1\cmath ****   constexpr long double
1310:c:\program files\daisytoolchain\arm-none-eabi\include\c++\10.2.1\cmath ****   erf(long double __x)
1311:c:\program files\daisytoolchain\arm-none-eabi\include\c++\10.2.1\cmath ****   { return __builtin_erfl(__x); }
1312:c:\program files\daisytoolchain\arm-none-eabi\include\c++\10.2.1\cmath **** #endif
1313:c:\program files\daisytoolchain\arm-none-eabi\include\c++\10.2.1\cmath **** 
1314:c:\program files\daisytoolchain\arm-none-eabi\include\c++\10.2.1\cmath **** #ifndef __CORRECT_ISO_CPP11_MATH_H_PROTO_INT
1315:c:\program files\daisytoolchain\arm-none-eabi\include\c++\10.2.1\cmath ****   template<typename _Tp>
1316:c:\program files\daisytoolchain\arm-none-eabi\include\c++\10.2.1\cmath ****     constexpr typename __gnu_cxx::__enable_if<__is_integer<_Tp>::__value, 
1317:c:\program files\daisytoolchain\arm-none-eabi\include\c++\10.2.1\cmath ****                                               double>::__type
1318:c:\program files\daisytoolchain\arm-none-eabi\include\c++\10.2.1\cmath ****     erf(_Tp __x)
1319:c:\program files\daisytoolchain\arm-none-eabi\include\c++\10.2.1\cmath ****     { return __builtin_erf(__x); }
1320:c:\program files\daisytoolchain\arm-none-eabi\include\c++\10.2.1\cmath **** #endif
1321:c:\program files\daisytoolchain\arm-none-eabi\include\c++\10.2.1\cmath **** 
1322:c:\program files\daisytoolchain\arm-none-eabi\include\c++\10.2.1\cmath **** #ifndef __CORRECT_ISO_CPP11_MATH_H_PROTO_FP
1323:c:\program files\daisytoolchain\arm-none-eabi\include\c++\10.2.1\cmath ****   constexpr float
1324:c:\program files\daisytoolchain\arm-none-eabi\include\c++\10.2.1\cmath ****   erfc(float __x)
1325:c:\program files\daisytoolchain\arm-none-eabi\include\c++\10.2.1\cmath ****   { return __builtin_erfcf(__x); }
1326:c:\program files\daisytoolchain\arm-none-eabi\include\c++\10.2.1\cmath **** 
1327:c:\program files\daisytoolchain\arm-none-eabi\include\c++\10.2.1\cmath ****   constexpr long double
1328:c:\program files\daisytoolchain\arm-none-eabi\include\c++\10.2.1\cmath ****   erfc(long double __x)
1329:c:\program files\daisytoolchain\arm-none-eabi\include\c++\10.2.1\cmath ****   { return __builtin_erfcl(__x); }
1330:c:\program files\daisytoolchain\arm-none-eabi\include\c++\10.2.1\cmath **** #endif
1331:c:\program files\daisytoolchain\arm-none-eabi\include\c++\10.2.1\cmath **** 
1332:c:\program files\daisytoolchain\arm-none-eabi\include\c++\10.2.1\cmath **** #ifndef __CORRECT_ISO_CPP11_MATH_H_PROTO_INT
1333:c:\program files\daisytoolchain\arm-none-eabi\include\c++\10.2.1\cmath ****   template<typename _Tp>
1334:c:\program files\daisytoolchain\arm-none-eabi\include\c++\10.2.1\cmath ****     constexpr typename __gnu_cxx::__enable_if<__is_integer<_Tp>::__value, 
1335:c:\program files\daisytoolchain\arm-none-eabi\include\c++\10.2.1\cmath ****                                               double>::__type
1336:c:\program files\daisytoolchain\arm-none-eabi\include\c++\10.2.1\cmath ****     erfc(_Tp __x)
1337:c:\program files\daisytoolchain\arm-none-eabi\include\c++\10.2.1\cmath ****     { return __builtin_erfc(__x); }
1338:c:\program files\daisytoolchain\arm-none-eabi\include\c++\10.2.1\cmath **** #endif
1339:c:\program files\daisytoolchain\arm-none-eabi\include\c++\10.2.1\cmath **** 
1340:c:\program files\daisytoolchain\arm-none-eabi\include\c++\10.2.1\cmath **** #ifndef __CORRECT_ISO_CPP11_MATH_H_PROTO_FP
1341:c:\program files\daisytoolchain\arm-none-eabi\include\c++\10.2.1\cmath ****   constexpr float
1342:c:\program files\daisytoolchain\arm-none-eabi\include\c++\10.2.1\cmath ****   exp2(float __x)
1343:c:\program files\daisytoolchain\arm-none-eabi\include\c++\10.2.1\cmath ****   { return __builtin_exp2f(__x); }
1344:c:\program files\daisytoolchain\arm-none-eabi\include\c++\10.2.1\cmath **** 
1345:c:\program files\daisytoolchain\arm-none-eabi\include\c++\10.2.1\cmath ****   constexpr long double
ARM GAS  C:\Users\hahnm\AppData\Local\Temp\cc4Pvs9Z.s 			page 27


1346:c:\program files\daisytoolchain\arm-none-eabi\include\c++\10.2.1\cmath ****   exp2(long double __x)
1347:c:\program files\daisytoolchain\arm-none-eabi\include\c++\10.2.1\cmath ****   { return __builtin_exp2l(__x); }
1348:c:\program files\daisytoolchain\arm-none-eabi\include\c++\10.2.1\cmath **** #endif
1349:c:\program files\daisytoolchain\arm-none-eabi\include\c++\10.2.1\cmath **** 
1350:c:\program files\daisytoolchain\arm-none-eabi\include\c++\10.2.1\cmath **** #ifndef __CORRECT_ISO_CPP11_MATH_H_PROTO_INT
1351:c:\program files\daisytoolchain\arm-none-eabi\include\c++\10.2.1\cmath ****   template<typename _Tp>
1352:c:\program files\daisytoolchain\arm-none-eabi\include\c++\10.2.1\cmath ****     constexpr typename __gnu_cxx::__enable_if<__is_integer<_Tp>::__value, 
1353:c:\program files\daisytoolchain\arm-none-eabi\include\c++\10.2.1\cmath ****                                               double>::__type
1354:c:\program files\daisytoolchain\arm-none-eabi\include\c++\10.2.1\cmath ****     exp2(_Tp __x)
1355:c:\program files\daisytoolchain\arm-none-eabi\include\c++\10.2.1\cmath ****     { return __builtin_exp2(__x); }
1356:c:\program files\daisytoolchain\arm-none-eabi\include\c++\10.2.1\cmath **** #endif
1357:c:\program files\daisytoolchain\arm-none-eabi\include\c++\10.2.1\cmath **** 
1358:c:\program files\daisytoolchain\arm-none-eabi\include\c++\10.2.1\cmath **** #ifndef __CORRECT_ISO_CPP11_MATH_H_PROTO_FP
1359:c:\program files\daisytoolchain\arm-none-eabi\include\c++\10.2.1\cmath ****   constexpr float
1360:c:\program files\daisytoolchain\arm-none-eabi\include\c++\10.2.1\cmath ****   expm1(float __x)
1361:c:\program files\daisytoolchain\arm-none-eabi\include\c++\10.2.1\cmath ****   { return __builtin_expm1f(__x); }
1362:c:\program files\daisytoolchain\arm-none-eabi\include\c++\10.2.1\cmath **** 
1363:c:\program files\daisytoolchain\arm-none-eabi\include\c++\10.2.1\cmath ****   constexpr long double
1364:c:\program files\daisytoolchain\arm-none-eabi\include\c++\10.2.1\cmath ****   expm1(long double __x)
1365:c:\program files\daisytoolchain\arm-none-eabi\include\c++\10.2.1\cmath ****   { return __builtin_expm1l(__x); }
1366:c:\program files\daisytoolchain\arm-none-eabi\include\c++\10.2.1\cmath **** #endif
1367:c:\program files\daisytoolchain\arm-none-eabi\include\c++\10.2.1\cmath **** 
1368:c:\program files\daisytoolchain\arm-none-eabi\include\c++\10.2.1\cmath **** #ifndef __CORRECT_ISO_CPP11_MATH_H_PROTO_INT
1369:c:\program files\daisytoolchain\arm-none-eabi\include\c++\10.2.1\cmath ****   template<typename _Tp>
1370:c:\program files\daisytoolchain\arm-none-eabi\include\c++\10.2.1\cmath ****     constexpr typename __gnu_cxx::__enable_if<__is_integer<_Tp>::__value, 
1371:c:\program files\daisytoolchain\arm-none-eabi\include\c++\10.2.1\cmath ****                                               double>::__type
1372:c:\program files\daisytoolchain\arm-none-eabi\include\c++\10.2.1\cmath ****     expm1(_Tp __x)
1373:c:\program files\daisytoolchain\arm-none-eabi\include\c++\10.2.1\cmath ****     { return __builtin_expm1(__x); }
1374:c:\program files\daisytoolchain\arm-none-eabi\include\c++\10.2.1\cmath **** #endif
1375:c:\program files\daisytoolchain\arm-none-eabi\include\c++\10.2.1\cmath **** 
1376:c:\program files\daisytoolchain\arm-none-eabi\include\c++\10.2.1\cmath **** #ifndef __CORRECT_ISO_CPP11_MATH_H_PROTO_FP
1377:c:\program files\daisytoolchain\arm-none-eabi\include\c++\10.2.1\cmath ****   constexpr float
1378:c:\program files\daisytoolchain\arm-none-eabi\include\c++\10.2.1\cmath ****   fdim(float __x, float __y)
1379:c:\program files\daisytoolchain\arm-none-eabi\include\c++\10.2.1\cmath ****   { return __builtin_fdimf(__x, __y); }
1380:c:\program files\daisytoolchain\arm-none-eabi\include\c++\10.2.1\cmath **** 
1381:c:\program files\daisytoolchain\arm-none-eabi\include\c++\10.2.1\cmath ****   constexpr long double
1382:c:\program files\daisytoolchain\arm-none-eabi\include\c++\10.2.1\cmath ****   fdim(long double __x, long double __y)
1383:c:\program files\daisytoolchain\arm-none-eabi\include\c++\10.2.1\cmath ****   { return __builtin_fdiml(__x, __y); }
1384:c:\program files\daisytoolchain\arm-none-eabi\include\c++\10.2.1\cmath **** #endif
1385:c:\program files\daisytoolchain\arm-none-eabi\include\c++\10.2.1\cmath **** 
1386:c:\program files\daisytoolchain\arm-none-eabi\include\c++\10.2.1\cmath **** #ifndef __CORRECT_ISO_CPP11_MATH_H_PROTO_INT
1387:c:\program files\daisytoolchain\arm-none-eabi\include\c++\10.2.1\cmath ****   template<typename _Tp, typename _Up>
1388:c:\program files\daisytoolchain\arm-none-eabi\include\c++\10.2.1\cmath ****     constexpr typename __gnu_cxx::__promote_2<_Tp, _Up>::__type
1389:c:\program files\daisytoolchain\arm-none-eabi\include\c++\10.2.1\cmath ****     fdim(_Tp __x, _Up __y)
1390:c:\program files\daisytoolchain\arm-none-eabi\include\c++\10.2.1\cmath ****     {
1391:c:\program files\daisytoolchain\arm-none-eabi\include\c++\10.2.1\cmath ****       typedef typename __gnu_cxx::__promote_2<_Tp, _Up>::__type __type;
1392:c:\program files\daisytoolchain\arm-none-eabi\include\c++\10.2.1\cmath ****       return fdim(__type(__x), __type(__y));
1393:c:\program files\daisytoolchain\arm-none-eabi\include\c++\10.2.1\cmath ****     }
1394:c:\program files\daisytoolchain\arm-none-eabi\include\c++\10.2.1\cmath **** #endif
1395:c:\program files\daisytoolchain\arm-none-eabi\include\c++\10.2.1\cmath **** 
1396:c:\program files\daisytoolchain\arm-none-eabi\include\c++\10.2.1\cmath **** #ifndef __CORRECT_ISO_CPP11_MATH_H_PROTO_FP
1397:c:\program files\daisytoolchain\arm-none-eabi\include\c++\10.2.1\cmath ****   constexpr float
1398:c:\program files\daisytoolchain\arm-none-eabi\include\c++\10.2.1\cmath ****   fma(float __x, float __y, float __z)
1399:c:\program files\daisytoolchain\arm-none-eabi\include\c++\10.2.1\cmath ****   { return __builtin_fmaf(__x, __y, __z); }
1400:c:\program files\daisytoolchain\arm-none-eabi\include\c++\10.2.1\cmath **** 
1401:c:\program files\daisytoolchain\arm-none-eabi\include\c++\10.2.1\cmath ****   constexpr long double
1402:c:\program files\daisytoolchain\arm-none-eabi\include\c++\10.2.1\cmath ****   fma(long double __x, long double __y, long double __z)
ARM GAS  C:\Users\hahnm\AppData\Local\Temp\cc4Pvs9Z.s 			page 28


1403:c:\program files\daisytoolchain\arm-none-eabi\include\c++\10.2.1\cmath ****   { return __builtin_fmal(__x, __y, __z); }
1404:c:\program files\daisytoolchain\arm-none-eabi\include\c++\10.2.1\cmath **** #endif
1405:c:\program files\daisytoolchain\arm-none-eabi\include\c++\10.2.1\cmath **** 
1406:c:\program files\daisytoolchain\arm-none-eabi\include\c++\10.2.1\cmath **** #ifndef __CORRECT_ISO_CPP11_MATH_H_PROTO_INT
1407:c:\program files\daisytoolchain\arm-none-eabi\include\c++\10.2.1\cmath ****   template<typename _Tp, typename _Up, typename _Vp>
1408:c:\program files\daisytoolchain\arm-none-eabi\include\c++\10.2.1\cmath ****     constexpr typename __gnu_cxx::__promote_3<_Tp, _Up, _Vp>::__type
1409:c:\program files\daisytoolchain\arm-none-eabi\include\c++\10.2.1\cmath ****     fma(_Tp __x, _Up __y, _Vp __z)
1410:c:\program files\daisytoolchain\arm-none-eabi\include\c++\10.2.1\cmath ****     {
1411:c:\program files\daisytoolchain\arm-none-eabi\include\c++\10.2.1\cmath ****       typedef typename __gnu_cxx::__promote_3<_Tp, _Up, _Vp>::__type __type;
1412:c:\program files\daisytoolchain\arm-none-eabi\include\c++\10.2.1\cmath ****       return fma(__type(__x), __type(__y), __type(__z));
1413:c:\program files\daisytoolchain\arm-none-eabi\include\c++\10.2.1\cmath ****     }
1414:c:\program files\daisytoolchain\arm-none-eabi\include\c++\10.2.1\cmath **** #endif
1415:c:\program files\daisytoolchain\arm-none-eabi\include\c++\10.2.1\cmath **** 
1416:c:\program files\daisytoolchain\arm-none-eabi\include\c++\10.2.1\cmath **** #ifndef __CORRECT_ISO_CPP11_MATH_H_PROTO_FP
1417:c:\program files\daisytoolchain\arm-none-eabi\include\c++\10.2.1\cmath ****   constexpr float
1418:c:\program files\daisytoolchain\arm-none-eabi\include\c++\10.2.1\cmath ****   fmax(float __x, float __y)
1419:c:\program files\daisytoolchain\arm-none-eabi\include\c++\10.2.1\cmath ****   { return __builtin_fmaxf(__x, __y); }
1420:c:\program files\daisytoolchain\arm-none-eabi\include\c++\10.2.1\cmath **** 
1421:c:\program files\daisytoolchain\arm-none-eabi\include\c++\10.2.1\cmath ****   constexpr long double
1422:c:\program files\daisytoolchain\arm-none-eabi\include\c++\10.2.1\cmath ****   fmax(long double __x, long double __y)
1423:c:\program files\daisytoolchain\arm-none-eabi\include\c++\10.2.1\cmath ****   { return __builtin_fmaxl(__x, __y); }
1424:c:\program files\daisytoolchain\arm-none-eabi\include\c++\10.2.1\cmath **** #endif
1425:c:\program files\daisytoolchain\arm-none-eabi\include\c++\10.2.1\cmath **** 
1426:c:\program files\daisytoolchain\arm-none-eabi\include\c++\10.2.1\cmath **** #ifndef __CORRECT_ISO_CPP11_MATH_H_PROTO_INT
1427:c:\program files\daisytoolchain\arm-none-eabi\include\c++\10.2.1\cmath ****   template<typename _Tp, typename _Up>
1428:c:\program files\daisytoolchain\arm-none-eabi\include\c++\10.2.1\cmath ****     constexpr typename __gnu_cxx::__promote_2<_Tp, _Up>::__type
1429:c:\program files\daisytoolchain\arm-none-eabi\include\c++\10.2.1\cmath ****     fmax(_Tp __x, _Up __y)
1430:c:\program files\daisytoolchain\arm-none-eabi\include\c++\10.2.1\cmath ****     {
1431:c:\program files\daisytoolchain\arm-none-eabi\include\c++\10.2.1\cmath ****       typedef typename __gnu_cxx::__promote_2<_Tp, _Up>::__type __type;
1432:c:\program files\daisytoolchain\arm-none-eabi\include\c++\10.2.1\cmath ****       return fmax(__type(__x), __type(__y));
1433:c:\program files\daisytoolchain\arm-none-eabi\include\c++\10.2.1\cmath ****     }
1434:c:\program files\daisytoolchain\arm-none-eabi\include\c++\10.2.1\cmath **** #endif
1435:c:\program files\daisytoolchain\arm-none-eabi\include\c++\10.2.1\cmath **** 
1436:c:\program files\daisytoolchain\arm-none-eabi\include\c++\10.2.1\cmath **** #ifndef __CORRECT_ISO_CPP11_MATH_H_PROTO_FP
1437:c:\program files\daisytoolchain\arm-none-eabi\include\c++\10.2.1\cmath ****   constexpr float
1438:c:\program files\daisytoolchain\arm-none-eabi\include\c++\10.2.1\cmath ****   fmin(float __x, float __y)
1439:c:\program files\daisytoolchain\arm-none-eabi\include\c++\10.2.1\cmath ****   { return __builtin_fminf(__x, __y); }
1440:c:\program files\daisytoolchain\arm-none-eabi\include\c++\10.2.1\cmath **** 
1441:c:\program files\daisytoolchain\arm-none-eabi\include\c++\10.2.1\cmath ****   constexpr long double
1442:c:\program files\daisytoolchain\arm-none-eabi\include\c++\10.2.1\cmath ****   fmin(long double __x, long double __y)
1443:c:\program files\daisytoolchain\arm-none-eabi\include\c++\10.2.1\cmath ****   { return __builtin_fminl(__x, __y); }
1444:c:\program files\daisytoolchain\arm-none-eabi\include\c++\10.2.1\cmath **** #endif
1445:c:\program files\daisytoolchain\arm-none-eabi\include\c++\10.2.1\cmath **** 
1446:c:\program files\daisytoolchain\arm-none-eabi\include\c++\10.2.1\cmath **** #ifndef __CORRECT_ISO_CPP11_MATH_H_PROTO_INT
1447:c:\program files\daisytoolchain\arm-none-eabi\include\c++\10.2.1\cmath ****   template<typename _Tp, typename _Up>
1448:c:\program files\daisytoolchain\arm-none-eabi\include\c++\10.2.1\cmath ****     constexpr typename __gnu_cxx::__promote_2<_Tp, _Up>::__type
1449:c:\program files\daisytoolchain\arm-none-eabi\include\c++\10.2.1\cmath ****     fmin(_Tp __x, _Up __y)
1450:c:\program files\daisytoolchain\arm-none-eabi\include\c++\10.2.1\cmath ****     {
1451:c:\program files\daisytoolchain\arm-none-eabi\include\c++\10.2.1\cmath ****       typedef typename __gnu_cxx::__promote_2<_Tp, _Up>::__type __type;
1452:c:\program files\daisytoolchain\arm-none-eabi\include\c++\10.2.1\cmath ****       return fmin(__type(__x), __type(__y));
1453:c:\program files\daisytoolchain\arm-none-eabi\include\c++\10.2.1\cmath ****     }
1454:c:\program files\daisytoolchain\arm-none-eabi\include\c++\10.2.1\cmath **** #endif
1455:c:\program files\daisytoolchain\arm-none-eabi\include\c++\10.2.1\cmath **** 
1456:c:\program files\daisytoolchain\arm-none-eabi\include\c++\10.2.1\cmath **** #ifndef __CORRECT_ISO_CPP11_MATH_H_PROTO_FP
1457:c:\program files\daisytoolchain\arm-none-eabi\include\c++\10.2.1\cmath ****   constexpr float
1458:c:\program files\daisytoolchain\arm-none-eabi\include\c++\10.2.1\cmath ****   hypot(float __x, float __y)
1459:c:\program files\daisytoolchain\arm-none-eabi\include\c++\10.2.1\cmath ****   { return __builtin_hypotf(__x, __y); }
ARM GAS  C:\Users\hahnm\AppData\Local\Temp\cc4Pvs9Z.s 			page 29


1460:c:\program files\daisytoolchain\arm-none-eabi\include\c++\10.2.1\cmath **** 
1461:c:\program files\daisytoolchain\arm-none-eabi\include\c++\10.2.1\cmath ****   constexpr long double
1462:c:\program files\daisytoolchain\arm-none-eabi\include\c++\10.2.1\cmath ****   hypot(long double __x, long double __y)
1463:c:\program files\daisytoolchain\arm-none-eabi\include\c++\10.2.1\cmath ****   { return __builtin_hypotl(__x, __y); }
1464:c:\program files\daisytoolchain\arm-none-eabi\include\c++\10.2.1\cmath **** #endif
1465:c:\program files\daisytoolchain\arm-none-eabi\include\c++\10.2.1\cmath **** 
1466:c:\program files\daisytoolchain\arm-none-eabi\include\c++\10.2.1\cmath **** #ifndef __CORRECT_ISO_CPP11_MATH_H_PROTO_INT
1467:c:\program files\daisytoolchain\arm-none-eabi\include\c++\10.2.1\cmath ****   template<typename _Tp, typename _Up>
1468:c:\program files\daisytoolchain\arm-none-eabi\include\c++\10.2.1\cmath ****     constexpr typename __gnu_cxx::__promote_2<_Tp, _Up>::__type
1469:c:\program files\daisytoolchain\arm-none-eabi\include\c++\10.2.1\cmath ****     hypot(_Tp __x, _Up __y)
1470:c:\program files\daisytoolchain\arm-none-eabi\include\c++\10.2.1\cmath ****     {
1471:c:\program files\daisytoolchain\arm-none-eabi\include\c++\10.2.1\cmath ****       typedef typename __gnu_cxx::__promote_2<_Tp, _Up>::__type __type;
1472:c:\program files\daisytoolchain\arm-none-eabi\include\c++\10.2.1\cmath ****       return hypot(__type(__x), __type(__y));
1473:c:\program files\daisytoolchain\arm-none-eabi\include\c++\10.2.1\cmath ****     }
1474:c:\program files\daisytoolchain\arm-none-eabi\include\c++\10.2.1\cmath **** #endif
1475:c:\program files\daisytoolchain\arm-none-eabi\include\c++\10.2.1\cmath **** 
1476:c:\program files\daisytoolchain\arm-none-eabi\include\c++\10.2.1\cmath **** #ifndef __CORRECT_ISO_CPP11_MATH_H_PROTO_FP
1477:c:\program files\daisytoolchain\arm-none-eabi\include\c++\10.2.1\cmath ****   constexpr int
1478:c:\program files\daisytoolchain\arm-none-eabi\include\c++\10.2.1\cmath ****   ilogb(float __x)
1479:c:\program files\daisytoolchain\arm-none-eabi\include\c++\10.2.1\cmath ****   { return __builtin_ilogbf(__x); }
1480:c:\program files\daisytoolchain\arm-none-eabi\include\c++\10.2.1\cmath **** 
1481:c:\program files\daisytoolchain\arm-none-eabi\include\c++\10.2.1\cmath ****   constexpr int
1482:c:\program files\daisytoolchain\arm-none-eabi\include\c++\10.2.1\cmath ****   ilogb(long double __x)
1483:c:\program files\daisytoolchain\arm-none-eabi\include\c++\10.2.1\cmath ****   { return __builtin_ilogbl(__x); }
1484:c:\program files\daisytoolchain\arm-none-eabi\include\c++\10.2.1\cmath **** #endif
1485:c:\program files\daisytoolchain\arm-none-eabi\include\c++\10.2.1\cmath **** 
1486:c:\program files\daisytoolchain\arm-none-eabi\include\c++\10.2.1\cmath **** #ifndef __CORRECT_ISO_CPP11_MATH_H_PROTO_INT
1487:c:\program files\daisytoolchain\arm-none-eabi\include\c++\10.2.1\cmath ****   template<typename _Tp>
1488:c:\program files\daisytoolchain\arm-none-eabi\include\c++\10.2.1\cmath ****     constexpr
1489:c:\program files\daisytoolchain\arm-none-eabi\include\c++\10.2.1\cmath ****     typename __gnu_cxx::__enable_if<__is_integer<_Tp>::__value, 
1490:c:\program files\daisytoolchain\arm-none-eabi\include\c++\10.2.1\cmath ****                                     int>::__type
1491:c:\program files\daisytoolchain\arm-none-eabi\include\c++\10.2.1\cmath ****     ilogb(_Tp __x)
1492:c:\program files\daisytoolchain\arm-none-eabi\include\c++\10.2.1\cmath ****     { return __builtin_ilogb(__x); }
1493:c:\program files\daisytoolchain\arm-none-eabi\include\c++\10.2.1\cmath **** #endif
1494:c:\program files\daisytoolchain\arm-none-eabi\include\c++\10.2.1\cmath **** 
1495:c:\program files\daisytoolchain\arm-none-eabi\include\c++\10.2.1\cmath **** #ifndef __CORRECT_ISO_CPP11_MATH_H_PROTO_FP
1496:c:\program files\daisytoolchain\arm-none-eabi\include\c++\10.2.1\cmath ****   constexpr float
1497:c:\program files\daisytoolchain\arm-none-eabi\include\c++\10.2.1\cmath ****   lgamma(float __x)
1498:c:\program files\daisytoolchain\arm-none-eabi\include\c++\10.2.1\cmath ****   { return __builtin_lgammaf(__x); }
1499:c:\program files\daisytoolchain\arm-none-eabi\include\c++\10.2.1\cmath **** 
1500:c:\program files\daisytoolchain\arm-none-eabi\include\c++\10.2.1\cmath ****   constexpr long double
1501:c:\program files\daisytoolchain\arm-none-eabi\include\c++\10.2.1\cmath ****   lgamma(long double __x)
1502:c:\program files\daisytoolchain\arm-none-eabi\include\c++\10.2.1\cmath ****   { return __builtin_lgammal(__x); }
1503:c:\program files\daisytoolchain\arm-none-eabi\include\c++\10.2.1\cmath **** #endif
1504:c:\program files\daisytoolchain\arm-none-eabi\include\c++\10.2.1\cmath **** 
1505:c:\program files\daisytoolchain\arm-none-eabi\include\c++\10.2.1\cmath **** #ifndef __CORRECT_ISO_CPP11_MATH_H_PROTO_INT
1506:c:\program files\daisytoolchain\arm-none-eabi\include\c++\10.2.1\cmath ****   template<typename _Tp>
1507:c:\program files\daisytoolchain\arm-none-eabi\include\c++\10.2.1\cmath ****     constexpr typename __gnu_cxx::__enable_if<__is_integer<_Tp>::__value, 
1508:c:\program files\daisytoolchain\arm-none-eabi\include\c++\10.2.1\cmath ****                                               double>::__type
1509:c:\program files\daisytoolchain\arm-none-eabi\include\c++\10.2.1\cmath ****     lgamma(_Tp __x)
1510:c:\program files\daisytoolchain\arm-none-eabi\include\c++\10.2.1\cmath ****     { return __builtin_lgamma(__x); }
1511:c:\program files\daisytoolchain\arm-none-eabi\include\c++\10.2.1\cmath **** #endif
1512:c:\program files\daisytoolchain\arm-none-eabi\include\c++\10.2.1\cmath **** 
1513:c:\program files\daisytoolchain\arm-none-eabi\include\c++\10.2.1\cmath **** #ifndef __CORRECT_ISO_CPP11_MATH_H_PROTO_FP
1514:c:\program files\daisytoolchain\arm-none-eabi\include\c++\10.2.1\cmath ****   constexpr long long
1515:c:\program files\daisytoolchain\arm-none-eabi\include\c++\10.2.1\cmath ****   llrint(float __x)
1516:c:\program files\daisytoolchain\arm-none-eabi\include\c++\10.2.1\cmath ****   { return __builtin_llrintf(__x); }
ARM GAS  C:\Users\hahnm\AppData\Local\Temp\cc4Pvs9Z.s 			page 30


1517:c:\program files\daisytoolchain\arm-none-eabi\include\c++\10.2.1\cmath **** 
1518:c:\program files\daisytoolchain\arm-none-eabi\include\c++\10.2.1\cmath ****   constexpr long long
1519:c:\program files\daisytoolchain\arm-none-eabi\include\c++\10.2.1\cmath ****   llrint(long double __x)
1520:c:\program files\daisytoolchain\arm-none-eabi\include\c++\10.2.1\cmath ****   { return __builtin_llrintl(__x); }
1521:c:\program files\daisytoolchain\arm-none-eabi\include\c++\10.2.1\cmath **** #endif
1522:c:\program files\daisytoolchain\arm-none-eabi\include\c++\10.2.1\cmath **** 
1523:c:\program files\daisytoolchain\arm-none-eabi\include\c++\10.2.1\cmath **** #ifndef __CORRECT_ISO_CPP11_MATH_H_PROTO_INT
1524:c:\program files\daisytoolchain\arm-none-eabi\include\c++\10.2.1\cmath ****   template<typename _Tp>
1525:c:\program files\daisytoolchain\arm-none-eabi\include\c++\10.2.1\cmath ****     constexpr typename __gnu_cxx::__enable_if<__is_integer<_Tp>::__value, 
1526:c:\program files\daisytoolchain\arm-none-eabi\include\c++\10.2.1\cmath ****                                               long long>::__type
1527:c:\program files\daisytoolchain\arm-none-eabi\include\c++\10.2.1\cmath ****     llrint(_Tp __x)
1528:c:\program files\daisytoolchain\arm-none-eabi\include\c++\10.2.1\cmath ****     { return __builtin_llrint(__x); }
1529:c:\program files\daisytoolchain\arm-none-eabi\include\c++\10.2.1\cmath **** #endif
1530:c:\program files\daisytoolchain\arm-none-eabi\include\c++\10.2.1\cmath **** 
1531:c:\program files\daisytoolchain\arm-none-eabi\include\c++\10.2.1\cmath **** #ifndef __CORRECT_ISO_CPP11_MATH_H_PROTO_FP
1532:c:\program files\daisytoolchain\arm-none-eabi\include\c++\10.2.1\cmath ****   constexpr long long
1533:c:\program files\daisytoolchain\arm-none-eabi\include\c++\10.2.1\cmath ****   llround(float __x)
1534:c:\program files\daisytoolchain\arm-none-eabi\include\c++\10.2.1\cmath ****   { return __builtin_llroundf(__x); }
1535:c:\program files\daisytoolchain\arm-none-eabi\include\c++\10.2.1\cmath **** 
1536:c:\program files\daisytoolchain\arm-none-eabi\include\c++\10.2.1\cmath ****   constexpr long long
1537:c:\program files\daisytoolchain\arm-none-eabi\include\c++\10.2.1\cmath ****   llround(long double __x)
1538:c:\program files\daisytoolchain\arm-none-eabi\include\c++\10.2.1\cmath ****   { return __builtin_llroundl(__x); }
1539:c:\program files\daisytoolchain\arm-none-eabi\include\c++\10.2.1\cmath **** #endif
1540:c:\program files\daisytoolchain\arm-none-eabi\include\c++\10.2.1\cmath **** 
1541:c:\program files\daisytoolchain\arm-none-eabi\include\c++\10.2.1\cmath **** #ifndef __CORRECT_ISO_CPP11_MATH_H_PROTO_INT
1542:c:\program files\daisytoolchain\arm-none-eabi\include\c++\10.2.1\cmath ****   template<typename _Tp>
1543:c:\program files\daisytoolchain\arm-none-eabi\include\c++\10.2.1\cmath ****     constexpr typename __gnu_cxx::__enable_if<__is_integer<_Tp>::__value, 
1544:c:\program files\daisytoolchain\arm-none-eabi\include\c++\10.2.1\cmath ****                                               long long>::__type
1545:c:\program files\daisytoolchain\arm-none-eabi\include\c++\10.2.1\cmath ****     llround(_Tp __x)
1546:c:\program files\daisytoolchain\arm-none-eabi\include\c++\10.2.1\cmath ****     { return __builtin_llround(__x); }
1547:c:\program files\daisytoolchain\arm-none-eabi\include\c++\10.2.1\cmath **** #endif
1548:c:\program files\daisytoolchain\arm-none-eabi\include\c++\10.2.1\cmath **** 
1549:c:\program files\daisytoolchain\arm-none-eabi\include\c++\10.2.1\cmath **** #ifndef __CORRECT_ISO_CPP11_MATH_H_PROTO_FP
1550:c:\program files\daisytoolchain\arm-none-eabi\include\c++\10.2.1\cmath ****   constexpr float
1551:c:\program files\daisytoolchain\arm-none-eabi\include\c++\10.2.1\cmath ****   log1p(float __x)
1552:c:\program files\daisytoolchain\arm-none-eabi\include\c++\10.2.1\cmath ****   { return __builtin_log1pf(__x); }
1553:c:\program files\daisytoolchain\arm-none-eabi\include\c++\10.2.1\cmath **** 
1554:c:\program files\daisytoolchain\arm-none-eabi\include\c++\10.2.1\cmath ****   constexpr long double
1555:c:\program files\daisytoolchain\arm-none-eabi\include\c++\10.2.1\cmath ****   log1p(long double __x)
1556:c:\program files\daisytoolchain\arm-none-eabi\include\c++\10.2.1\cmath ****   { return __builtin_log1pl(__x); }
1557:c:\program files\daisytoolchain\arm-none-eabi\include\c++\10.2.1\cmath **** #endif
1558:c:\program files\daisytoolchain\arm-none-eabi\include\c++\10.2.1\cmath **** 
1559:c:\program files\daisytoolchain\arm-none-eabi\include\c++\10.2.1\cmath **** #ifndef __CORRECT_ISO_CPP11_MATH_H_PROTO_INT
1560:c:\program files\daisytoolchain\arm-none-eabi\include\c++\10.2.1\cmath ****   template<typename _Tp>
1561:c:\program files\daisytoolchain\arm-none-eabi\include\c++\10.2.1\cmath ****     constexpr typename __gnu_cxx::__enable_if<__is_integer<_Tp>::__value, 
1562:c:\program files\daisytoolchain\arm-none-eabi\include\c++\10.2.1\cmath ****                                               double>::__type
1563:c:\program files\daisytoolchain\arm-none-eabi\include\c++\10.2.1\cmath ****     log1p(_Tp __x)
1564:c:\program files\daisytoolchain\arm-none-eabi\include\c++\10.2.1\cmath ****     { return __builtin_log1p(__x); }
1565:c:\program files\daisytoolchain\arm-none-eabi\include\c++\10.2.1\cmath **** #endif
1566:c:\program files\daisytoolchain\arm-none-eabi\include\c++\10.2.1\cmath **** 
1567:c:\program files\daisytoolchain\arm-none-eabi\include\c++\10.2.1\cmath **** #ifndef __CORRECT_ISO_CPP11_MATH_H_PROTO_FP
1568:c:\program files\daisytoolchain\arm-none-eabi\include\c++\10.2.1\cmath ****   // DR 568.
1569:c:\program files\daisytoolchain\arm-none-eabi\include\c++\10.2.1\cmath ****   constexpr float
1570:c:\program files\daisytoolchain\arm-none-eabi\include\c++\10.2.1\cmath ****   log2(float __x)
1571:c:\program files\daisytoolchain\arm-none-eabi\include\c++\10.2.1\cmath ****   { return __builtin_log2f(__x); }
1572:c:\program files\daisytoolchain\arm-none-eabi\include\c++\10.2.1\cmath **** 
1573:c:\program files\daisytoolchain\arm-none-eabi\include\c++\10.2.1\cmath ****   constexpr long double
ARM GAS  C:\Users\hahnm\AppData\Local\Temp\cc4Pvs9Z.s 			page 31


1574:c:\program files\daisytoolchain\arm-none-eabi\include\c++\10.2.1\cmath ****   log2(long double __x)
1575:c:\program files\daisytoolchain\arm-none-eabi\include\c++\10.2.1\cmath ****   { return __builtin_log2l(__x); }
1576:c:\program files\daisytoolchain\arm-none-eabi\include\c++\10.2.1\cmath **** #endif
1577:c:\program files\daisytoolchain\arm-none-eabi\include\c++\10.2.1\cmath **** 
1578:c:\program files\daisytoolchain\arm-none-eabi\include\c++\10.2.1\cmath **** #ifndef __CORRECT_ISO_CPP11_MATH_H_PROTO_INT
1579:c:\program files\daisytoolchain\arm-none-eabi\include\c++\10.2.1\cmath ****   template<typename _Tp>
1580:c:\program files\daisytoolchain\arm-none-eabi\include\c++\10.2.1\cmath ****     constexpr typename __gnu_cxx::__enable_if<__is_integer<_Tp>::__value, 
1581:c:\program files\daisytoolchain\arm-none-eabi\include\c++\10.2.1\cmath ****                                               double>::__type
1582:c:\program files\daisytoolchain\arm-none-eabi\include\c++\10.2.1\cmath ****     log2(_Tp __x)
1583:c:\program files\daisytoolchain\arm-none-eabi\include\c++\10.2.1\cmath ****     { return __builtin_log2(__x); }
1584:c:\program files\daisytoolchain\arm-none-eabi\include\c++\10.2.1\cmath **** #endif
1585:c:\program files\daisytoolchain\arm-none-eabi\include\c++\10.2.1\cmath **** 
1586:c:\program files\daisytoolchain\arm-none-eabi\include\c++\10.2.1\cmath **** #ifndef __CORRECT_ISO_CPP11_MATH_H_PROTO_FP
1587:c:\program files\daisytoolchain\arm-none-eabi\include\c++\10.2.1\cmath ****   constexpr float
1588:c:\program files\daisytoolchain\arm-none-eabi\include\c++\10.2.1\cmath ****   logb(float __x)
1589:c:\program files\daisytoolchain\arm-none-eabi\include\c++\10.2.1\cmath ****   { return __builtin_logbf(__x); }
1590:c:\program files\daisytoolchain\arm-none-eabi\include\c++\10.2.1\cmath **** 
1591:c:\program files\daisytoolchain\arm-none-eabi\include\c++\10.2.1\cmath ****   constexpr long double
1592:c:\program files\daisytoolchain\arm-none-eabi\include\c++\10.2.1\cmath ****   logb(long double __x)
1593:c:\program files\daisytoolchain\arm-none-eabi\include\c++\10.2.1\cmath ****   { return __builtin_logbl(__x); }
1594:c:\program files\daisytoolchain\arm-none-eabi\include\c++\10.2.1\cmath **** #endif
1595:c:\program files\daisytoolchain\arm-none-eabi\include\c++\10.2.1\cmath **** 
1596:c:\program files\daisytoolchain\arm-none-eabi\include\c++\10.2.1\cmath **** #ifndef __CORRECT_ISO_CPP11_MATH_H_PROTO_INT
1597:c:\program files\daisytoolchain\arm-none-eabi\include\c++\10.2.1\cmath ****   template<typename _Tp>
1598:c:\program files\daisytoolchain\arm-none-eabi\include\c++\10.2.1\cmath ****     constexpr typename __gnu_cxx::__enable_if<__is_integer<_Tp>::__value, 
1599:c:\program files\daisytoolchain\arm-none-eabi\include\c++\10.2.1\cmath ****                                               double>::__type
1600:c:\program files\daisytoolchain\arm-none-eabi\include\c++\10.2.1\cmath ****     logb(_Tp __x)
1601:c:\program files\daisytoolchain\arm-none-eabi\include\c++\10.2.1\cmath ****     { return __builtin_logb(__x); }
1602:c:\program files\daisytoolchain\arm-none-eabi\include\c++\10.2.1\cmath **** #endif
1603:c:\program files\daisytoolchain\arm-none-eabi\include\c++\10.2.1\cmath **** 
1604:c:\program files\daisytoolchain\arm-none-eabi\include\c++\10.2.1\cmath **** #ifndef __CORRECT_ISO_CPP11_MATH_H_PROTO_FP
1605:c:\program files\daisytoolchain\arm-none-eabi\include\c++\10.2.1\cmath ****   constexpr long
1606:c:\program files\daisytoolchain\arm-none-eabi\include\c++\10.2.1\cmath ****   lrint(float __x)
1607:c:\program files\daisytoolchain\arm-none-eabi\include\c++\10.2.1\cmath ****   { return __builtin_lrintf(__x); }
1608:c:\program files\daisytoolchain\arm-none-eabi\include\c++\10.2.1\cmath **** 
1609:c:\program files\daisytoolchain\arm-none-eabi\include\c++\10.2.1\cmath ****   constexpr long
1610:c:\program files\daisytoolchain\arm-none-eabi\include\c++\10.2.1\cmath ****   lrint(long double __x)
1611:c:\program files\daisytoolchain\arm-none-eabi\include\c++\10.2.1\cmath ****   { return __builtin_lrintl(__x); }
1612:c:\program files\daisytoolchain\arm-none-eabi\include\c++\10.2.1\cmath **** #endif
1613:c:\program files\daisytoolchain\arm-none-eabi\include\c++\10.2.1\cmath **** 
1614:c:\program files\daisytoolchain\arm-none-eabi\include\c++\10.2.1\cmath **** #ifndef __CORRECT_ISO_CPP11_MATH_H_PROTO_INT
1615:c:\program files\daisytoolchain\arm-none-eabi\include\c++\10.2.1\cmath ****   template<typename _Tp>
1616:c:\program files\daisytoolchain\arm-none-eabi\include\c++\10.2.1\cmath ****     constexpr typename __gnu_cxx::__enable_if<__is_integer<_Tp>::__value, 
1617:c:\program files\daisytoolchain\arm-none-eabi\include\c++\10.2.1\cmath ****                                               long>::__type
1618:c:\program files\daisytoolchain\arm-none-eabi\include\c++\10.2.1\cmath ****     lrint(_Tp __x)
1619:c:\program files\daisytoolchain\arm-none-eabi\include\c++\10.2.1\cmath ****     { return __builtin_lrint(__x); }
1620:c:\program files\daisytoolchain\arm-none-eabi\include\c++\10.2.1\cmath **** #endif
1621:c:\program files\daisytoolchain\arm-none-eabi\include\c++\10.2.1\cmath **** 
1622:c:\program files\daisytoolchain\arm-none-eabi\include\c++\10.2.1\cmath **** #ifndef __CORRECT_ISO_CPP11_MATH_H_PROTO_FP
1623:c:\program files\daisytoolchain\arm-none-eabi\include\c++\10.2.1\cmath ****   constexpr long
1624:c:\program files\daisytoolchain\arm-none-eabi\include\c++\10.2.1\cmath ****   lround(float __x)
1625:c:\program files\daisytoolchain\arm-none-eabi\include\c++\10.2.1\cmath ****   { return __builtin_lroundf(__x); }
1626:c:\program files\daisytoolchain\arm-none-eabi\include\c++\10.2.1\cmath **** 
1627:c:\program files\daisytoolchain\arm-none-eabi\include\c++\10.2.1\cmath ****   constexpr long
1628:c:\program files\daisytoolchain\arm-none-eabi\include\c++\10.2.1\cmath ****   lround(long double __x)
1629:c:\program files\daisytoolchain\arm-none-eabi\include\c++\10.2.1\cmath ****   { return __builtin_lroundl(__x); }
1630:c:\program files\daisytoolchain\arm-none-eabi\include\c++\10.2.1\cmath **** #endif
ARM GAS  C:\Users\hahnm\AppData\Local\Temp\cc4Pvs9Z.s 			page 32


1631:c:\program files\daisytoolchain\arm-none-eabi\include\c++\10.2.1\cmath **** 
1632:c:\program files\daisytoolchain\arm-none-eabi\include\c++\10.2.1\cmath **** #ifndef __CORRECT_ISO_CPP11_MATH_H_PROTO_INT
1633:c:\program files\daisytoolchain\arm-none-eabi\include\c++\10.2.1\cmath ****   template<typename _Tp>
1634:c:\program files\daisytoolchain\arm-none-eabi\include\c++\10.2.1\cmath ****     constexpr typename __gnu_cxx::__enable_if<__is_integer<_Tp>::__value, 
1635:c:\program files\daisytoolchain\arm-none-eabi\include\c++\10.2.1\cmath ****                                               long>::__type
1636:c:\program files\daisytoolchain\arm-none-eabi\include\c++\10.2.1\cmath ****     lround(_Tp __x)
1637:c:\program files\daisytoolchain\arm-none-eabi\include\c++\10.2.1\cmath ****     { return __builtin_lround(__x); }
1638:c:\program files\daisytoolchain\arm-none-eabi\include\c++\10.2.1\cmath **** #endif
1639:c:\program files\daisytoolchain\arm-none-eabi\include\c++\10.2.1\cmath **** 
1640:c:\program files\daisytoolchain\arm-none-eabi\include\c++\10.2.1\cmath **** #ifndef __CORRECT_ISO_CPP11_MATH_H_PROTO_FP
1641:c:\program files\daisytoolchain\arm-none-eabi\include\c++\10.2.1\cmath ****   constexpr float
1642:c:\program files\daisytoolchain\arm-none-eabi\include\c++\10.2.1\cmath ****   nearbyint(float __x)
1643:c:\program files\daisytoolchain\arm-none-eabi\include\c++\10.2.1\cmath ****   { return __builtin_nearbyintf(__x); }
1644:c:\program files\daisytoolchain\arm-none-eabi\include\c++\10.2.1\cmath **** 
1645:c:\program files\daisytoolchain\arm-none-eabi\include\c++\10.2.1\cmath ****   constexpr long double
1646:c:\program files\daisytoolchain\arm-none-eabi\include\c++\10.2.1\cmath ****   nearbyint(long double __x)
1647:c:\program files\daisytoolchain\arm-none-eabi\include\c++\10.2.1\cmath ****   { return __builtin_nearbyintl(__x); }
1648:c:\program files\daisytoolchain\arm-none-eabi\include\c++\10.2.1\cmath **** #endif
1649:c:\program files\daisytoolchain\arm-none-eabi\include\c++\10.2.1\cmath **** 
1650:c:\program files\daisytoolchain\arm-none-eabi\include\c++\10.2.1\cmath **** #ifndef __CORRECT_ISO_CPP11_MATH_H_PROTO_INT
1651:c:\program files\daisytoolchain\arm-none-eabi\include\c++\10.2.1\cmath ****   template<typename _Tp>
1652:c:\program files\daisytoolchain\arm-none-eabi\include\c++\10.2.1\cmath ****     constexpr typename __gnu_cxx::__enable_if<__is_integer<_Tp>::__value, 
1653:c:\program files\daisytoolchain\arm-none-eabi\include\c++\10.2.1\cmath ****                                               double>::__type
1654:c:\program files\daisytoolchain\arm-none-eabi\include\c++\10.2.1\cmath ****     nearbyint(_Tp __x)
1655:c:\program files\daisytoolchain\arm-none-eabi\include\c++\10.2.1\cmath ****     { return __builtin_nearbyint(__x); }
1656:c:\program files\daisytoolchain\arm-none-eabi\include\c++\10.2.1\cmath **** #endif
1657:c:\program files\daisytoolchain\arm-none-eabi\include\c++\10.2.1\cmath **** 
1658:c:\program files\daisytoolchain\arm-none-eabi\include\c++\10.2.1\cmath **** #ifndef __CORRECT_ISO_CPP11_MATH_H_PROTO_FP
1659:c:\program files\daisytoolchain\arm-none-eabi\include\c++\10.2.1\cmath ****   constexpr float
1660:c:\program files\daisytoolchain\arm-none-eabi\include\c++\10.2.1\cmath ****   nextafter(float __x, float __y)
1661:c:\program files\daisytoolchain\arm-none-eabi\include\c++\10.2.1\cmath ****   { return __builtin_nextafterf(__x, __y); }
  69              		.loc 2 1661 3
  70              		.cfi_startproc
  71              		@ args = 0, pretend = 0, frame = 8
  72              		@ frame_needed = 1, uses_anonymous_args = 0
  73 0000 80B5     		push	{r7, lr}
  74              		.cfi_def_cfa_offset 8
  75              		.cfi_offset 7, -8
  76              		.cfi_offset 14, -4
  77 0002 82B0     		sub	sp, sp, #8
  78              		.cfi_def_cfa_offset 16
  79 0004 00AF     		add	r7, sp, #0
  80              		.cfi_def_cfa_register 7
  81 0006 87ED010A 		vstr.32	s0, [r7, #4]
  82 000a C7ED000A 		vstr.32	s1, [r7]
  83              		.loc 2 1661 32
  84 000e D7ED000A 		vldr.32	s1, [r7]
  85 0012 97ED010A 		vldr.32	s0, [r7, #4]
  86 0016 FFF7FEFF 		bl	nextafterf
  87 001a F0EE407A 		vmov.f32	s15, s0
  88              		.loc 2 1661 44
  89 001e B0EE670A 		vmov.f32	s0, s15
  90 0022 0837     		adds	r7, r7, #8
  91              		.cfi_def_cfa_offset 8
  92 0024 BD46     		mov	sp, r7
  93              		.cfi_def_cfa_register 13
  94              		@ sp needed
ARM GAS  C:\Users\hahnm\AppData\Local\Temp\cc4Pvs9Z.s 			page 33


  95 0026 80BD     		pop	{r7, pc}
  96              		.cfi_endproc
  97              	.LFE328:
  99              		.section	.text._ZL20__gthread_key_deletei,"ax",%progbits
 100              		.align	1
 101              		.syntax unified
 102              		.thumb
 103              		.thumb_func
 104              		.fpu fpv5-d16
 106              	_ZL20__gthread_key_deletei:
 107              	.LFB738:
 108              		.file 3 "c:\\program files\\daisytoolchain\\arm-none-eabi\\include\\c++\\10.2.1\\arm-none-eabi\\th
   1:c:\program files\daisytoolchain\arm-none-eabi\include\c++\10.2.1\arm-none-eabi\thumb\v7e-m+dp\hard\bits\gthr-default.h **** /* Threads compatibility routines for libgcc2 and libobjc.  */
   2:c:\program files\daisytoolchain\arm-none-eabi\include\c++\10.2.1\arm-none-eabi\thumb\v7e-m+dp\hard\bits\gthr-default.h **** /* Compile this one with gcc.  */
   3:c:\program files\daisytoolchain\arm-none-eabi\include\c++\10.2.1\arm-none-eabi\thumb\v7e-m+dp\hard\bits\gthr-default.h **** /* Copyright (C) 1997-2020 Free Software Foundation, Inc.
   4:c:\program files\daisytoolchain\arm-none-eabi\include\c++\10.2.1\arm-none-eabi\thumb\v7e-m+dp\hard\bits\gthr-default.h **** 
   5:c:\program files\daisytoolchain\arm-none-eabi\include\c++\10.2.1\arm-none-eabi\thumb\v7e-m+dp\hard\bits\gthr-default.h **** This file is part of GCC.
   6:c:\program files\daisytoolchain\arm-none-eabi\include\c++\10.2.1\arm-none-eabi\thumb\v7e-m+dp\hard\bits\gthr-default.h **** 
   7:c:\program files\daisytoolchain\arm-none-eabi\include\c++\10.2.1\arm-none-eabi\thumb\v7e-m+dp\hard\bits\gthr-default.h **** GCC is free software; you can redistribute it and/or modify it under
   8:c:\program files\daisytoolchain\arm-none-eabi\include\c++\10.2.1\arm-none-eabi\thumb\v7e-m+dp\hard\bits\gthr-default.h **** the terms of the GNU General Public License as published by the Free
   9:c:\program files\daisytoolchain\arm-none-eabi\include\c++\10.2.1\arm-none-eabi\thumb\v7e-m+dp\hard\bits\gthr-default.h **** Software Foundation; either version 3, or (at your option) any later
  10:c:\program files\daisytoolchain\arm-none-eabi\include\c++\10.2.1\arm-none-eabi\thumb\v7e-m+dp\hard\bits\gthr-default.h **** version.
  11:c:\program files\daisytoolchain\arm-none-eabi\include\c++\10.2.1\arm-none-eabi\thumb\v7e-m+dp\hard\bits\gthr-default.h **** 
  12:c:\program files\daisytoolchain\arm-none-eabi\include\c++\10.2.1\arm-none-eabi\thumb\v7e-m+dp\hard\bits\gthr-default.h **** GCC is distributed in the hope that it will be useful, but WITHOUT ANY
  13:c:\program files\daisytoolchain\arm-none-eabi\include\c++\10.2.1\arm-none-eabi\thumb\v7e-m+dp\hard\bits\gthr-default.h **** WARRANTY; without even the implied warranty of MERCHANTABILITY or
  14:c:\program files\daisytoolchain\arm-none-eabi\include\c++\10.2.1\arm-none-eabi\thumb\v7e-m+dp\hard\bits\gthr-default.h **** FITNESS FOR A PARTICULAR PURPOSE.  See the GNU General Public License
  15:c:\program files\daisytoolchain\arm-none-eabi\include\c++\10.2.1\arm-none-eabi\thumb\v7e-m+dp\hard\bits\gthr-default.h **** for more details.
  16:c:\program files\daisytoolchain\arm-none-eabi\include\c++\10.2.1\arm-none-eabi\thumb\v7e-m+dp\hard\bits\gthr-default.h **** 
  17:c:\program files\daisytoolchain\arm-none-eabi\include\c++\10.2.1\arm-none-eabi\thumb\v7e-m+dp\hard\bits\gthr-default.h **** Under Section 7 of GPL version 3, you are granted additional
  18:c:\program files\daisytoolchain\arm-none-eabi\include\c++\10.2.1\arm-none-eabi\thumb\v7e-m+dp\hard\bits\gthr-default.h **** permissions described in the GCC Runtime Library Exception, version
  19:c:\program files\daisytoolchain\arm-none-eabi\include\c++\10.2.1\arm-none-eabi\thumb\v7e-m+dp\hard\bits\gthr-default.h **** 3.1, as published by the Free Software Foundation.
  20:c:\program files\daisytoolchain\arm-none-eabi\include\c++\10.2.1\arm-none-eabi\thumb\v7e-m+dp\hard\bits\gthr-default.h **** 
  21:c:\program files\daisytoolchain\arm-none-eabi\include\c++\10.2.1\arm-none-eabi\thumb\v7e-m+dp\hard\bits\gthr-default.h **** You should have received a copy of the GNU General Public License and
  22:c:\program files\daisytoolchain\arm-none-eabi\include\c++\10.2.1\arm-none-eabi\thumb\v7e-m+dp\hard\bits\gthr-default.h **** a copy of the GCC Runtime Library Exception along with this program;
  23:c:\program files\daisytoolchain\arm-none-eabi\include\c++\10.2.1\arm-none-eabi\thumb\v7e-m+dp\hard\bits\gthr-default.h **** see the files COPYING3 and COPYING.RUNTIME respectively.  If not, see
  24:c:\program files\daisytoolchain\arm-none-eabi\include\c++\10.2.1\arm-none-eabi\thumb\v7e-m+dp\hard\bits\gthr-default.h **** <http://www.gnu.org/licenses/>.  */
  25:c:\program files\daisytoolchain\arm-none-eabi\include\c++\10.2.1\arm-none-eabi\thumb\v7e-m+dp\hard\bits\gthr-default.h **** 
  26:c:\program files\daisytoolchain\arm-none-eabi\include\c++\10.2.1\arm-none-eabi\thumb\v7e-m+dp\hard\bits\gthr-default.h **** #ifndef _GLIBCXX_GCC_GTHR_SINGLE_H
  27:c:\program files\daisytoolchain\arm-none-eabi\include\c++\10.2.1\arm-none-eabi\thumb\v7e-m+dp\hard\bits\gthr-default.h **** #define _GLIBCXX_GCC_GTHR_SINGLE_H
  28:c:\program files\daisytoolchain\arm-none-eabi\include\c++\10.2.1\arm-none-eabi\thumb\v7e-m+dp\hard\bits\gthr-default.h **** 
  29:c:\program files\daisytoolchain\arm-none-eabi\include\c++\10.2.1\arm-none-eabi\thumb\v7e-m+dp\hard\bits\gthr-default.h **** /* Just provide compatibility for mutex handling.  */
  30:c:\program files\daisytoolchain\arm-none-eabi\include\c++\10.2.1\arm-none-eabi\thumb\v7e-m+dp\hard\bits\gthr-default.h **** 
  31:c:\program files\daisytoolchain\arm-none-eabi\include\c++\10.2.1\arm-none-eabi\thumb\v7e-m+dp\hard\bits\gthr-default.h **** typedef int __gthread_key_t;
  32:c:\program files\daisytoolchain\arm-none-eabi\include\c++\10.2.1\arm-none-eabi\thumb\v7e-m+dp\hard\bits\gthr-default.h **** typedef int __gthread_once_t;
  33:c:\program files\daisytoolchain\arm-none-eabi\include\c++\10.2.1\arm-none-eabi\thumb\v7e-m+dp\hard\bits\gthr-default.h **** typedef int __gthread_mutex_t;
  34:c:\program files\daisytoolchain\arm-none-eabi\include\c++\10.2.1\arm-none-eabi\thumb\v7e-m+dp\hard\bits\gthr-default.h **** typedef int __gthread_recursive_mutex_t;
  35:c:\program files\daisytoolchain\arm-none-eabi\include\c++\10.2.1\arm-none-eabi\thumb\v7e-m+dp\hard\bits\gthr-default.h **** 
  36:c:\program files\daisytoolchain\arm-none-eabi\include\c++\10.2.1\arm-none-eabi\thumb\v7e-m+dp\hard\bits\gthr-default.h **** #define __GTHREAD_ONCE_INIT 0
  37:c:\program files\daisytoolchain\arm-none-eabi\include\c++\10.2.1\arm-none-eabi\thumb\v7e-m+dp\hard\bits\gthr-default.h **** #define __GTHREAD_MUTEX_INIT 0
  38:c:\program files\daisytoolchain\arm-none-eabi\include\c++\10.2.1\arm-none-eabi\thumb\v7e-m+dp\hard\bits\gthr-default.h **** #define __GTHREAD_MUTEX_INIT_FUNCTION(mx) do {} while (0)
  39:c:\program files\daisytoolchain\arm-none-eabi\include\c++\10.2.1\arm-none-eabi\thumb\v7e-m+dp\hard\bits\gthr-default.h **** #define __GTHREAD_RECURSIVE_MUTEX_INIT 0
  40:c:\program files\daisytoolchain\arm-none-eabi\include\c++\10.2.1\arm-none-eabi\thumb\v7e-m+dp\hard\bits\gthr-default.h **** 
  41:c:\program files\daisytoolchain\arm-none-eabi\include\c++\10.2.1\arm-none-eabi\thumb\v7e-m+dp\hard\bits\gthr-default.h **** #define _GLIBCXX_UNUSED __attribute__((__unused__))
  42:c:\program files\daisytoolchain\arm-none-eabi\include\c++\10.2.1\arm-none-eabi\thumb\v7e-m+dp\hard\bits\gthr-default.h **** 
  43:c:\program files\daisytoolchain\arm-none-eabi\include\c++\10.2.1\arm-none-eabi\thumb\v7e-m+dp\hard\bits\gthr-default.h **** #ifdef _LIBOBJC
  44:c:\program files\daisytoolchain\arm-none-eabi\include\c++\10.2.1\arm-none-eabi\thumb\v7e-m+dp\hard\bits\gthr-default.h **** 
  45:c:\program files\daisytoolchain\arm-none-eabi\include\c++\10.2.1\arm-none-eabi\thumb\v7e-m+dp\hard\bits\gthr-default.h **** /* Thread local storage for a single thread */
ARM GAS  C:\Users\hahnm\AppData\Local\Temp\cc4Pvs9Z.s 			page 34


  46:c:\program files\daisytoolchain\arm-none-eabi\include\c++\10.2.1\arm-none-eabi\thumb\v7e-m+dp\hard\bits\gthr-default.h **** static void *thread_local_storage = NULL;
  47:c:\program files\daisytoolchain\arm-none-eabi\include\c++\10.2.1\arm-none-eabi\thumb\v7e-m+dp\hard\bits\gthr-default.h **** 
  48:c:\program files\daisytoolchain\arm-none-eabi\include\c++\10.2.1\arm-none-eabi\thumb\v7e-m+dp\hard\bits\gthr-default.h **** /* Backend initialization functions */
  49:c:\program files\daisytoolchain\arm-none-eabi\include\c++\10.2.1\arm-none-eabi\thumb\v7e-m+dp\hard\bits\gthr-default.h **** 
  50:c:\program files\daisytoolchain\arm-none-eabi\include\c++\10.2.1\arm-none-eabi\thumb\v7e-m+dp\hard\bits\gthr-default.h **** /* Initialize the threads subsystem.  */
  51:c:\program files\daisytoolchain\arm-none-eabi\include\c++\10.2.1\arm-none-eabi\thumb\v7e-m+dp\hard\bits\gthr-default.h **** static inline int
  52:c:\program files\daisytoolchain\arm-none-eabi\include\c++\10.2.1\arm-none-eabi\thumb\v7e-m+dp\hard\bits\gthr-default.h **** __gthread_objc_init_thread_system (void)
  53:c:\program files\daisytoolchain\arm-none-eabi\include\c++\10.2.1\arm-none-eabi\thumb\v7e-m+dp\hard\bits\gthr-default.h **** {
  54:c:\program files\daisytoolchain\arm-none-eabi\include\c++\10.2.1\arm-none-eabi\thumb\v7e-m+dp\hard\bits\gthr-default.h ****   /* No thread support available */
  55:c:\program files\daisytoolchain\arm-none-eabi\include\c++\10.2.1\arm-none-eabi\thumb\v7e-m+dp\hard\bits\gthr-default.h ****   return -1;
  56:c:\program files\daisytoolchain\arm-none-eabi\include\c++\10.2.1\arm-none-eabi\thumb\v7e-m+dp\hard\bits\gthr-default.h **** }
  57:c:\program files\daisytoolchain\arm-none-eabi\include\c++\10.2.1\arm-none-eabi\thumb\v7e-m+dp\hard\bits\gthr-default.h **** 
  58:c:\program files\daisytoolchain\arm-none-eabi\include\c++\10.2.1\arm-none-eabi\thumb\v7e-m+dp\hard\bits\gthr-default.h **** /* Close the threads subsystem.  */
  59:c:\program files\daisytoolchain\arm-none-eabi\include\c++\10.2.1\arm-none-eabi\thumb\v7e-m+dp\hard\bits\gthr-default.h **** static inline int
  60:c:\program files\daisytoolchain\arm-none-eabi\include\c++\10.2.1\arm-none-eabi\thumb\v7e-m+dp\hard\bits\gthr-default.h **** __gthread_objc_close_thread_system (void)
  61:c:\program files\daisytoolchain\arm-none-eabi\include\c++\10.2.1\arm-none-eabi\thumb\v7e-m+dp\hard\bits\gthr-default.h **** {
  62:c:\program files\daisytoolchain\arm-none-eabi\include\c++\10.2.1\arm-none-eabi\thumb\v7e-m+dp\hard\bits\gthr-default.h ****   /* No thread support available */
  63:c:\program files\daisytoolchain\arm-none-eabi\include\c++\10.2.1\arm-none-eabi\thumb\v7e-m+dp\hard\bits\gthr-default.h ****   return -1;
  64:c:\program files\daisytoolchain\arm-none-eabi\include\c++\10.2.1\arm-none-eabi\thumb\v7e-m+dp\hard\bits\gthr-default.h **** }
  65:c:\program files\daisytoolchain\arm-none-eabi\include\c++\10.2.1\arm-none-eabi\thumb\v7e-m+dp\hard\bits\gthr-default.h **** 
  66:c:\program files\daisytoolchain\arm-none-eabi\include\c++\10.2.1\arm-none-eabi\thumb\v7e-m+dp\hard\bits\gthr-default.h **** /* Backend thread functions */
  67:c:\program files\daisytoolchain\arm-none-eabi\include\c++\10.2.1\arm-none-eabi\thumb\v7e-m+dp\hard\bits\gthr-default.h **** 
  68:c:\program files\daisytoolchain\arm-none-eabi\include\c++\10.2.1\arm-none-eabi\thumb\v7e-m+dp\hard\bits\gthr-default.h **** /* Create a new thread of execution.  */
  69:c:\program files\daisytoolchain\arm-none-eabi\include\c++\10.2.1\arm-none-eabi\thumb\v7e-m+dp\hard\bits\gthr-default.h **** static inline objc_thread_t
  70:c:\program files\daisytoolchain\arm-none-eabi\include\c++\10.2.1\arm-none-eabi\thumb\v7e-m+dp\hard\bits\gthr-default.h **** __gthread_objc_thread_detach (void (* func)(void *), void * arg _GLIBCXX_UNUSED)
  71:c:\program files\daisytoolchain\arm-none-eabi\include\c++\10.2.1\arm-none-eabi\thumb\v7e-m+dp\hard\bits\gthr-default.h **** {
  72:c:\program files\daisytoolchain\arm-none-eabi\include\c++\10.2.1\arm-none-eabi\thumb\v7e-m+dp\hard\bits\gthr-default.h ****   /* No thread support available */
  73:c:\program files\daisytoolchain\arm-none-eabi\include\c++\10.2.1\arm-none-eabi\thumb\v7e-m+dp\hard\bits\gthr-default.h ****   return NULL;
  74:c:\program files\daisytoolchain\arm-none-eabi\include\c++\10.2.1\arm-none-eabi\thumb\v7e-m+dp\hard\bits\gthr-default.h **** }
  75:c:\program files\daisytoolchain\arm-none-eabi\include\c++\10.2.1\arm-none-eabi\thumb\v7e-m+dp\hard\bits\gthr-default.h **** 
  76:c:\program files\daisytoolchain\arm-none-eabi\include\c++\10.2.1\arm-none-eabi\thumb\v7e-m+dp\hard\bits\gthr-default.h **** /* Set the current thread's priority.  */
  77:c:\program files\daisytoolchain\arm-none-eabi\include\c++\10.2.1\arm-none-eabi\thumb\v7e-m+dp\hard\bits\gthr-default.h **** static inline int
  78:c:\program files\daisytoolchain\arm-none-eabi\include\c++\10.2.1\arm-none-eabi\thumb\v7e-m+dp\hard\bits\gthr-default.h **** __gthread_objc_thread_set_priority (int priority _GLIBCXX_UNUSED)
  79:c:\program files\daisytoolchain\arm-none-eabi\include\c++\10.2.1\arm-none-eabi\thumb\v7e-m+dp\hard\bits\gthr-default.h **** {
  80:c:\program files\daisytoolchain\arm-none-eabi\include\c++\10.2.1\arm-none-eabi\thumb\v7e-m+dp\hard\bits\gthr-default.h ****   /* No thread support available */
  81:c:\program files\daisytoolchain\arm-none-eabi\include\c++\10.2.1\arm-none-eabi\thumb\v7e-m+dp\hard\bits\gthr-default.h ****   return -1;
  82:c:\program files\daisytoolchain\arm-none-eabi\include\c++\10.2.1\arm-none-eabi\thumb\v7e-m+dp\hard\bits\gthr-default.h **** }
  83:c:\program files\daisytoolchain\arm-none-eabi\include\c++\10.2.1\arm-none-eabi\thumb\v7e-m+dp\hard\bits\gthr-default.h **** 
  84:c:\program files\daisytoolchain\arm-none-eabi\include\c++\10.2.1\arm-none-eabi\thumb\v7e-m+dp\hard\bits\gthr-default.h **** /* Return the current thread's priority.  */
  85:c:\program files\daisytoolchain\arm-none-eabi\include\c++\10.2.1\arm-none-eabi\thumb\v7e-m+dp\hard\bits\gthr-default.h **** static inline int
  86:c:\program files\daisytoolchain\arm-none-eabi\include\c++\10.2.1\arm-none-eabi\thumb\v7e-m+dp\hard\bits\gthr-default.h **** __gthread_objc_thread_get_priority (void)
  87:c:\program files\daisytoolchain\arm-none-eabi\include\c++\10.2.1\arm-none-eabi\thumb\v7e-m+dp\hard\bits\gthr-default.h **** {
  88:c:\program files\daisytoolchain\arm-none-eabi\include\c++\10.2.1\arm-none-eabi\thumb\v7e-m+dp\hard\bits\gthr-default.h ****   return OBJC_THREAD_INTERACTIVE_PRIORITY;
  89:c:\program files\daisytoolchain\arm-none-eabi\include\c++\10.2.1\arm-none-eabi\thumb\v7e-m+dp\hard\bits\gthr-default.h **** }
  90:c:\program files\daisytoolchain\arm-none-eabi\include\c++\10.2.1\arm-none-eabi\thumb\v7e-m+dp\hard\bits\gthr-default.h **** 
  91:c:\program files\daisytoolchain\arm-none-eabi\include\c++\10.2.1\arm-none-eabi\thumb\v7e-m+dp\hard\bits\gthr-default.h **** /* Yield our process time to another thread.  */
  92:c:\program files\daisytoolchain\arm-none-eabi\include\c++\10.2.1\arm-none-eabi\thumb\v7e-m+dp\hard\bits\gthr-default.h **** static inline void
  93:c:\program files\daisytoolchain\arm-none-eabi\include\c++\10.2.1\arm-none-eabi\thumb\v7e-m+dp\hard\bits\gthr-default.h **** __gthread_objc_thread_yield (void)
  94:c:\program files\daisytoolchain\arm-none-eabi\include\c++\10.2.1\arm-none-eabi\thumb\v7e-m+dp\hard\bits\gthr-default.h **** {
  95:c:\program files\daisytoolchain\arm-none-eabi\include\c++\10.2.1\arm-none-eabi\thumb\v7e-m+dp\hard\bits\gthr-default.h ****   return;
  96:c:\program files\daisytoolchain\arm-none-eabi\include\c++\10.2.1\arm-none-eabi\thumb\v7e-m+dp\hard\bits\gthr-default.h **** }
  97:c:\program files\daisytoolchain\arm-none-eabi\include\c++\10.2.1\arm-none-eabi\thumb\v7e-m+dp\hard\bits\gthr-default.h **** 
  98:c:\program files\daisytoolchain\arm-none-eabi\include\c++\10.2.1\arm-none-eabi\thumb\v7e-m+dp\hard\bits\gthr-default.h **** /* Terminate the current thread.  */
  99:c:\program files\daisytoolchain\arm-none-eabi\include\c++\10.2.1\arm-none-eabi\thumb\v7e-m+dp\hard\bits\gthr-default.h **** static inline int
 100:c:\program files\daisytoolchain\arm-none-eabi\include\c++\10.2.1\arm-none-eabi\thumb\v7e-m+dp\hard\bits\gthr-default.h **** __gthread_objc_thread_exit (void)
 101:c:\program files\daisytoolchain\arm-none-eabi\include\c++\10.2.1\arm-none-eabi\thumb\v7e-m+dp\hard\bits\gthr-default.h **** {
 102:c:\program files\daisytoolchain\arm-none-eabi\include\c++\10.2.1\arm-none-eabi\thumb\v7e-m+dp\hard\bits\gthr-default.h ****   /* No thread support available */
ARM GAS  C:\Users\hahnm\AppData\Local\Temp\cc4Pvs9Z.s 			page 35


 103:c:\program files\daisytoolchain\arm-none-eabi\include\c++\10.2.1\arm-none-eabi\thumb\v7e-m+dp\hard\bits\gthr-default.h ****   /* Should we really exit the program */
 104:c:\program files\daisytoolchain\arm-none-eabi\include\c++\10.2.1\arm-none-eabi\thumb\v7e-m+dp\hard\bits\gthr-default.h ****   /* exit (&__objc_thread_exit_status); */
 105:c:\program files\daisytoolchain\arm-none-eabi\include\c++\10.2.1\arm-none-eabi\thumb\v7e-m+dp\hard\bits\gthr-default.h ****   return -1;
 106:c:\program files\daisytoolchain\arm-none-eabi\include\c++\10.2.1\arm-none-eabi\thumb\v7e-m+dp\hard\bits\gthr-default.h **** }
 107:c:\program files\daisytoolchain\arm-none-eabi\include\c++\10.2.1\arm-none-eabi\thumb\v7e-m+dp\hard\bits\gthr-default.h **** 
 108:c:\program files\daisytoolchain\arm-none-eabi\include\c++\10.2.1\arm-none-eabi\thumb\v7e-m+dp\hard\bits\gthr-default.h **** /* Returns an integer value which uniquely describes a thread.  */
 109:c:\program files\daisytoolchain\arm-none-eabi\include\c++\10.2.1\arm-none-eabi\thumb\v7e-m+dp\hard\bits\gthr-default.h **** static inline objc_thread_t
 110:c:\program files\daisytoolchain\arm-none-eabi\include\c++\10.2.1\arm-none-eabi\thumb\v7e-m+dp\hard\bits\gthr-default.h **** __gthread_objc_thread_id (void)
 111:c:\program files\daisytoolchain\arm-none-eabi\include\c++\10.2.1\arm-none-eabi\thumb\v7e-m+dp\hard\bits\gthr-default.h **** {
 112:c:\program files\daisytoolchain\arm-none-eabi\include\c++\10.2.1\arm-none-eabi\thumb\v7e-m+dp\hard\bits\gthr-default.h ****   /* No thread support, use 1.  */
 113:c:\program files\daisytoolchain\arm-none-eabi\include\c++\10.2.1\arm-none-eabi\thumb\v7e-m+dp\hard\bits\gthr-default.h ****   return (objc_thread_t) 1;
 114:c:\program files\daisytoolchain\arm-none-eabi\include\c++\10.2.1\arm-none-eabi\thumb\v7e-m+dp\hard\bits\gthr-default.h **** }
 115:c:\program files\daisytoolchain\arm-none-eabi\include\c++\10.2.1\arm-none-eabi\thumb\v7e-m+dp\hard\bits\gthr-default.h **** 
 116:c:\program files\daisytoolchain\arm-none-eabi\include\c++\10.2.1\arm-none-eabi\thumb\v7e-m+dp\hard\bits\gthr-default.h **** /* Sets the thread's local storage pointer.  */
 117:c:\program files\daisytoolchain\arm-none-eabi\include\c++\10.2.1\arm-none-eabi\thumb\v7e-m+dp\hard\bits\gthr-default.h **** static inline int
 118:c:\program files\daisytoolchain\arm-none-eabi\include\c++\10.2.1\arm-none-eabi\thumb\v7e-m+dp\hard\bits\gthr-default.h **** __gthread_objc_thread_set_data (void *value)
 119:c:\program files\daisytoolchain\arm-none-eabi\include\c++\10.2.1\arm-none-eabi\thumb\v7e-m+dp\hard\bits\gthr-default.h **** {
 120:c:\program files\daisytoolchain\arm-none-eabi\include\c++\10.2.1\arm-none-eabi\thumb\v7e-m+dp\hard\bits\gthr-default.h ****   thread_local_storage = value;
 121:c:\program files\daisytoolchain\arm-none-eabi\include\c++\10.2.1\arm-none-eabi\thumb\v7e-m+dp\hard\bits\gthr-default.h ****   return 0;
 122:c:\program files\daisytoolchain\arm-none-eabi\include\c++\10.2.1\arm-none-eabi\thumb\v7e-m+dp\hard\bits\gthr-default.h **** }
 123:c:\program files\daisytoolchain\arm-none-eabi\include\c++\10.2.1\arm-none-eabi\thumb\v7e-m+dp\hard\bits\gthr-default.h **** 
 124:c:\program files\daisytoolchain\arm-none-eabi\include\c++\10.2.1\arm-none-eabi\thumb\v7e-m+dp\hard\bits\gthr-default.h **** /* Returns the thread's local storage pointer.  */
 125:c:\program files\daisytoolchain\arm-none-eabi\include\c++\10.2.1\arm-none-eabi\thumb\v7e-m+dp\hard\bits\gthr-default.h **** static inline void *
 126:c:\program files\daisytoolchain\arm-none-eabi\include\c++\10.2.1\arm-none-eabi\thumb\v7e-m+dp\hard\bits\gthr-default.h **** __gthread_objc_thread_get_data (void)
 127:c:\program files\daisytoolchain\arm-none-eabi\include\c++\10.2.1\arm-none-eabi\thumb\v7e-m+dp\hard\bits\gthr-default.h **** {
 128:c:\program files\daisytoolchain\arm-none-eabi\include\c++\10.2.1\arm-none-eabi\thumb\v7e-m+dp\hard\bits\gthr-default.h ****   return thread_local_storage;
 129:c:\program files\daisytoolchain\arm-none-eabi\include\c++\10.2.1\arm-none-eabi\thumb\v7e-m+dp\hard\bits\gthr-default.h **** }
 130:c:\program files\daisytoolchain\arm-none-eabi\include\c++\10.2.1\arm-none-eabi\thumb\v7e-m+dp\hard\bits\gthr-default.h **** 
 131:c:\program files\daisytoolchain\arm-none-eabi\include\c++\10.2.1\arm-none-eabi\thumb\v7e-m+dp\hard\bits\gthr-default.h **** /* Backend mutex functions */
 132:c:\program files\daisytoolchain\arm-none-eabi\include\c++\10.2.1\arm-none-eabi\thumb\v7e-m+dp\hard\bits\gthr-default.h **** 
 133:c:\program files\daisytoolchain\arm-none-eabi\include\c++\10.2.1\arm-none-eabi\thumb\v7e-m+dp\hard\bits\gthr-default.h **** /* Allocate a mutex.  */
 134:c:\program files\daisytoolchain\arm-none-eabi\include\c++\10.2.1\arm-none-eabi\thumb\v7e-m+dp\hard\bits\gthr-default.h **** static inline int
 135:c:\program files\daisytoolchain\arm-none-eabi\include\c++\10.2.1\arm-none-eabi\thumb\v7e-m+dp\hard\bits\gthr-default.h **** __gthread_objc_mutex_allocate (objc_mutex_t mutex _GLIBCXX_UNUSED)
 136:c:\program files\daisytoolchain\arm-none-eabi\include\c++\10.2.1\arm-none-eabi\thumb\v7e-m+dp\hard\bits\gthr-default.h **** {
 137:c:\program files\daisytoolchain\arm-none-eabi\include\c++\10.2.1\arm-none-eabi\thumb\v7e-m+dp\hard\bits\gthr-default.h ****   return 0;
 138:c:\program files\daisytoolchain\arm-none-eabi\include\c++\10.2.1\arm-none-eabi\thumb\v7e-m+dp\hard\bits\gthr-default.h **** }
 139:c:\program files\daisytoolchain\arm-none-eabi\include\c++\10.2.1\arm-none-eabi\thumb\v7e-m+dp\hard\bits\gthr-default.h **** 
 140:c:\program files\daisytoolchain\arm-none-eabi\include\c++\10.2.1\arm-none-eabi\thumb\v7e-m+dp\hard\bits\gthr-default.h **** /* Deallocate a mutex.  */
 141:c:\program files\daisytoolchain\arm-none-eabi\include\c++\10.2.1\arm-none-eabi\thumb\v7e-m+dp\hard\bits\gthr-default.h **** static inline int
 142:c:\program files\daisytoolchain\arm-none-eabi\include\c++\10.2.1\arm-none-eabi\thumb\v7e-m+dp\hard\bits\gthr-default.h **** __gthread_objc_mutex_deallocate (objc_mutex_t mutex _GLIBCXX_UNUSED)
 143:c:\program files\daisytoolchain\arm-none-eabi\include\c++\10.2.1\arm-none-eabi\thumb\v7e-m+dp\hard\bits\gthr-default.h **** {
 144:c:\program files\daisytoolchain\arm-none-eabi\include\c++\10.2.1\arm-none-eabi\thumb\v7e-m+dp\hard\bits\gthr-default.h ****   return 0;
 145:c:\program files\daisytoolchain\arm-none-eabi\include\c++\10.2.1\arm-none-eabi\thumb\v7e-m+dp\hard\bits\gthr-default.h **** }
 146:c:\program files\daisytoolchain\arm-none-eabi\include\c++\10.2.1\arm-none-eabi\thumb\v7e-m+dp\hard\bits\gthr-default.h **** 
 147:c:\program files\daisytoolchain\arm-none-eabi\include\c++\10.2.1\arm-none-eabi\thumb\v7e-m+dp\hard\bits\gthr-default.h **** /* Grab a lock on a mutex.  */
 148:c:\program files\daisytoolchain\arm-none-eabi\include\c++\10.2.1\arm-none-eabi\thumb\v7e-m+dp\hard\bits\gthr-default.h **** static inline int
 149:c:\program files\daisytoolchain\arm-none-eabi\include\c++\10.2.1\arm-none-eabi\thumb\v7e-m+dp\hard\bits\gthr-default.h **** __gthread_objc_mutex_lock (objc_mutex_t mutex _GLIBCXX_UNUSED)
 150:c:\program files\daisytoolchain\arm-none-eabi\include\c++\10.2.1\arm-none-eabi\thumb\v7e-m+dp\hard\bits\gthr-default.h **** {
 151:c:\program files\daisytoolchain\arm-none-eabi\include\c++\10.2.1\arm-none-eabi\thumb\v7e-m+dp\hard\bits\gthr-default.h ****   /* There can only be one thread, so we always get the lock */
 152:c:\program files\daisytoolchain\arm-none-eabi\include\c++\10.2.1\arm-none-eabi\thumb\v7e-m+dp\hard\bits\gthr-default.h ****   return 0;
 153:c:\program files\daisytoolchain\arm-none-eabi\include\c++\10.2.1\arm-none-eabi\thumb\v7e-m+dp\hard\bits\gthr-default.h **** }
 154:c:\program files\daisytoolchain\arm-none-eabi\include\c++\10.2.1\arm-none-eabi\thumb\v7e-m+dp\hard\bits\gthr-default.h **** 
 155:c:\program files\daisytoolchain\arm-none-eabi\include\c++\10.2.1\arm-none-eabi\thumb\v7e-m+dp\hard\bits\gthr-default.h **** /* Try to grab a lock on a mutex.  */
 156:c:\program files\daisytoolchain\arm-none-eabi\include\c++\10.2.1\arm-none-eabi\thumb\v7e-m+dp\hard\bits\gthr-default.h **** static inline int
 157:c:\program files\daisytoolchain\arm-none-eabi\include\c++\10.2.1\arm-none-eabi\thumb\v7e-m+dp\hard\bits\gthr-default.h **** __gthread_objc_mutex_trylock (objc_mutex_t mutex _GLIBCXX_UNUSED)
 158:c:\program files\daisytoolchain\arm-none-eabi\include\c++\10.2.1\arm-none-eabi\thumb\v7e-m+dp\hard\bits\gthr-default.h **** {
 159:c:\program files\daisytoolchain\arm-none-eabi\include\c++\10.2.1\arm-none-eabi\thumb\v7e-m+dp\hard\bits\gthr-default.h ****   /* There can only be one thread, so we always get the lock */
ARM GAS  C:\Users\hahnm\AppData\Local\Temp\cc4Pvs9Z.s 			page 36


 160:c:\program files\daisytoolchain\arm-none-eabi\include\c++\10.2.1\arm-none-eabi\thumb\v7e-m+dp\hard\bits\gthr-default.h ****   return 0;
 161:c:\program files\daisytoolchain\arm-none-eabi\include\c++\10.2.1\arm-none-eabi\thumb\v7e-m+dp\hard\bits\gthr-default.h **** }
 162:c:\program files\daisytoolchain\arm-none-eabi\include\c++\10.2.1\arm-none-eabi\thumb\v7e-m+dp\hard\bits\gthr-default.h **** 
 163:c:\program files\daisytoolchain\arm-none-eabi\include\c++\10.2.1\arm-none-eabi\thumb\v7e-m+dp\hard\bits\gthr-default.h **** /* Unlock the mutex */
 164:c:\program files\daisytoolchain\arm-none-eabi\include\c++\10.2.1\arm-none-eabi\thumb\v7e-m+dp\hard\bits\gthr-default.h **** static inline int
 165:c:\program files\daisytoolchain\arm-none-eabi\include\c++\10.2.1\arm-none-eabi\thumb\v7e-m+dp\hard\bits\gthr-default.h **** __gthread_objc_mutex_unlock (objc_mutex_t mutex _GLIBCXX_UNUSED)
 166:c:\program files\daisytoolchain\arm-none-eabi\include\c++\10.2.1\arm-none-eabi\thumb\v7e-m+dp\hard\bits\gthr-default.h **** {
 167:c:\program files\daisytoolchain\arm-none-eabi\include\c++\10.2.1\arm-none-eabi\thumb\v7e-m+dp\hard\bits\gthr-default.h ****   return 0;
 168:c:\program files\daisytoolchain\arm-none-eabi\include\c++\10.2.1\arm-none-eabi\thumb\v7e-m+dp\hard\bits\gthr-default.h **** }
 169:c:\program files\daisytoolchain\arm-none-eabi\include\c++\10.2.1\arm-none-eabi\thumb\v7e-m+dp\hard\bits\gthr-default.h **** 
 170:c:\program files\daisytoolchain\arm-none-eabi\include\c++\10.2.1\arm-none-eabi\thumb\v7e-m+dp\hard\bits\gthr-default.h **** /* Backend condition mutex functions */
 171:c:\program files\daisytoolchain\arm-none-eabi\include\c++\10.2.1\arm-none-eabi\thumb\v7e-m+dp\hard\bits\gthr-default.h **** 
 172:c:\program files\daisytoolchain\arm-none-eabi\include\c++\10.2.1\arm-none-eabi\thumb\v7e-m+dp\hard\bits\gthr-default.h **** /* Allocate a condition.  */
 173:c:\program files\daisytoolchain\arm-none-eabi\include\c++\10.2.1\arm-none-eabi\thumb\v7e-m+dp\hard\bits\gthr-default.h **** static inline int
 174:c:\program files\daisytoolchain\arm-none-eabi\include\c++\10.2.1\arm-none-eabi\thumb\v7e-m+dp\hard\bits\gthr-default.h **** __gthread_objc_condition_allocate (objc_condition_t condition _GLIBCXX_UNUSED)
 175:c:\program files\daisytoolchain\arm-none-eabi\include\c++\10.2.1\arm-none-eabi\thumb\v7e-m+dp\hard\bits\gthr-default.h **** {
 176:c:\program files\daisytoolchain\arm-none-eabi\include\c++\10.2.1\arm-none-eabi\thumb\v7e-m+dp\hard\bits\gthr-default.h ****   return 0;
 177:c:\program files\daisytoolchain\arm-none-eabi\include\c++\10.2.1\arm-none-eabi\thumb\v7e-m+dp\hard\bits\gthr-default.h **** }
 178:c:\program files\daisytoolchain\arm-none-eabi\include\c++\10.2.1\arm-none-eabi\thumb\v7e-m+dp\hard\bits\gthr-default.h **** 
 179:c:\program files\daisytoolchain\arm-none-eabi\include\c++\10.2.1\arm-none-eabi\thumb\v7e-m+dp\hard\bits\gthr-default.h **** /* Deallocate a condition.  */
 180:c:\program files\daisytoolchain\arm-none-eabi\include\c++\10.2.1\arm-none-eabi\thumb\v7e-m+dp\hard\bits\gthr-default.h **** static inline int
 181:c:\program files\daisytoolchain\arm-none-eabi\include\c++\10.2.1\arm-none-eabi\thumb\v7e-m+dp\hard\bits\gthr-default.h **** __gthread_objc_condition_deallocate (objc_condition_t condition _GLIBCXX_UNUSED)
 182:c:\program files\daisytoolchain\arm-none-eabi\include\c++\10.2.1\arm-none-eabi\thumb\v7e-m+dp\hard\bits\gthr-default.h **** {
 183:c:\program files\daisytoolchain\arm-none-eabi\include\c++\10.2.1\arm-none-eabi\thumb\v7e-m+dp\hard\bits\gthr-default.h ****   return 0;
 184:c:\program files\daisytoolchain\arm-none-eabi\include\c++\10.2.1\arm-none-eabi\thumb\v7e-m+dp\hard\bits\gthr-default.h **** }
 185:c:\program files\daisytoolchain\arm-none-eabi\include\c++\10.2.1\arm-none-eabi\thumb\v7e-m+dp\hard\bits\gthr-default.h **** 
 186:c:\program files\daisytoolchain\arm-none-eabi\include\c++\10.2.1\arm-none-eabi\thumb\v7e-m+dp\hard\bits\gthr-default.h **** /* Wait on the condition */
 187:c:\program files\daisytoolchain\arm-none-eabi\include\c++\10.2.1\arm-none-eabi\thumb\v7e-m+dp\hard\bits\gthr-default.h **** static inline int
 188:c:\program files\daisytoolchain\arm-none-eabi\include\c++\10.2.1\arm-none-eabi\thumb\v7e-m+dp\hard\bits\gthr-default.h **** __gthread_objc_condition_wait (objc_condition_t condition _GLIBCXX_UNUSED,
 189:c:\program files\daisytoolchain\arm-none-eabi\include\c++\10.2.1\arm-none-eabi\thumb\v7e-m+dp\hard\bits\gthr-default.h **** 			       objc_mutex_t mutex _GLIBCXX_UNUSED)
 190:c:\program files\daisytoolchain\arm-none-eabi\include\c++\10.2.1\arm-none-eabi\thumb\v7e-m+dp\hard\bits\gthr-default.h **** {
 191:c:\program files\daisytoolchain\arm-none-eabi\include\c++\10.2.1\arm-none-eabi\thumb\v7e-m+dp\hard\bits\gthr-default.h ****   return 0;
 192:c:\program files\daisytoolchain\arm-none-eabi\include\c++\10.2.1\arm-none-eabi\thumb\v7e-m+dp\hard\bits\gthr-default.h **** }
 193:c:\program files\daisytoolchain\arm-none-eabi\include\c++\10.2.1\arm-none-eabi\thumb\v7e-m+dp\hard\bits\gthr-default.h **** 
 194:c:\program files\daisytoolchain\arm-none-eabi\include\c++\10.2.1\arm-none-eabi\thumb\v7e-m+dp\hard\bits\gthr-default.h **** /* Wake up all threads waiting on this condition.  */
 195:c:\program files\daisytoolchain\arm-none-eabi\include\c++\10.2.1\arm-none-eabi\thumb\v7e-m+dp\hard\bits\gthr-default.h **** static inline int
 196:c:\program files\daisytoolchain\arm-none-eabi\include\c++\10.2.1\arm-none-eabi\thumb\v7e-m+dp\hard\bits\gthr-default.h **** __gthread_objc_condition_broadcast (objc_condition_t condition _GLIBCXX_UNUSED)
 197:c:\program files\daisytoolchain\arm-none-eabi\include\c++\10.2.1\arm-none-eabi\thumb\v7e-m+dp\hard\bits\gthr-default.h **** {
 198:c:\program files\daisytoolchain\arm-none-eabi\include\c++\10.2.1\arm-none-eabi\thumb\v7e-m+dp\hard\bits\gthr-default.h ****   return 0;
 199:c:\program files\daisytoolchain\arm-none-eabi\include\c++\10.2.1\arm-none-eabi\thumb\v7e-m+dp\hard\bits\gthr-default.h **** }
 200:c:\program files\daisytoolchain\arm-none-eabi\include\c++\10.2.1\arm-none-eabi\thumb\v7e-m+dp\hard\bits\gthr-default.h **** 
 201:c:\program files\daisytoolchain\arm-none-eabi\include\c++\10.2.1\arm-none-eabi\thumb\v7e-m+dp\hard\bits\gthr-default.h **** /* Wake up one thread waiting on this condition.  */
 202:c:\program files\daisytoolchain\arm-none-eabi\include\c++\10.2.1\arm-none-eabi\thumb\v7e-m+dp\hard\bits\gthr-default.h **** static inline int
 203:c:\program files\daisytoolchain\arm-none-eabi\include\c++\10.2.1\arm-none-eabi\thumb\v7e-m+dp\hard\bits\gthr-default.h **** __gthread_objc_condition_signal (objc_condition_t condition _GLIBCXX_UNUSED)
 204:c:\program files\daisytoolchain\arm-none-eabi\include\c++\10.2.1\arm-none-eabi\thumb\v7e-m+dp\hard\bits\gthr-default.h **** {
 205:c:\program files\daisytoolchain\arm-none-eabi\include\c++\10.2.1\arm-none-eabi\thumb\v7e-m+dp\hard\bits\gthr-default.h ****   return 0;
 206:c:\program files\daisytoolchain\arm-none-eabi\include\c++\10.2.1\arm-none-eabi\thumb\v7e-m+dp\hard\bits\gthr-default.h **** }
 207:c:\program files\daisytoolchain\arm-none-eabi\include\c++\10.2.1\arm-none-eabi\thumb\v7e-m+dp\hard\bits\gthr-default.h **** 
 208:c:\program files\daisytoolchain\arm-none-eabi\include\c++\10.2.1\arm-none-eabi\thumb\v7e-m+dp\hard\bits\gthr-default.h **** #else /* _LIBOBJC */
 209:c:\program files\daisytoolchain\arm-none-eabi\include\c++\10.2.1\arm-none-eabi\thumb\v7e-m+dp\hard\bits\gthr-default.h **** 
 210:c:\program files\daisytoolchain\arm-none-eabi\include\c++\10.2.1\arm-none-eabi\thumb\v7e-m+dp\hard\bits\gthr-default.h **** static inline int
 211:c:\program files\daisytoolchain\arm-none-eabi\include\c++\10.2.1\arm-none-eabi\thumb\v7e-m+dp\hard\bits\gthr-default.h **** __gthread_active_p (void)
 212:c:\program files\daisytoolchain\arm-none-eabi\include\c++\10.2.1\arm-none-eabi\thumb\v7e-m+dp\hard\bits\gthr-default.h **** {
 213:c:\program files\daisytoolchain\arm-none-eabi\include\c++\10.2.1\arm-none-eabi\thumb\v7e-m+dp\hard\bits\gthr-default.h ****   return 0;
 214:c:\program files\daisytoolchain\arm-none-eabi\include\c++\10.2.1\arm-none-eabi\thumb\v7e-m+dp\hard\bits\gthr-default.h **** }
 215:c:\program files\daisytoolchain\arm-none-eabi\include\c++\10.2.1\arm-none-eabi\thumb\v7e-m+dp\hard\bits\gthr-default.h **** 
 216:c:\program files\daisytoolchain\arm-none-eabi\include\c++\10.2.1\arm-none-eabi\thumb\v7e-m+dp\hard\bits\gthr-default.h **** static inline int
ARM GAS  C:\Users\hahnm\AppData\Local\Temp\cc4Pvs9Z.s 			page 37


 217:c:\program files\daisytoolchain\arm-none-eabi\include\c++\10.2.1\arm-none-eabi\thumb\v7e-m+dp\hard\bits\gthr-default.h **** __gthread_once (__gthread_once_t *__once _GLIBCXX_UNUSED, void (*__func) (void) _GLIBCXX_UNUSED)
 218:c:\program files\daisytoolchain\arm-none-eabi\include\c++\10.2.1\arm-none-eabi\thumb\v7e-m+dp\hard\bits\gthr-default.h **** {
 219:c:\program files\daisytoolchain\arm-none-eabi\include\c++\10.2.1\arm-none-eabi\thumb\v7e-m+dp\hard\bits\gthr-default.h ****   return 0;
 220:c:\program files\daisytoolchain\arm-none-eabi\include\c++\10.2.1\arm-none-eabi\thumb\v7e-m+dp\hard\bits\gthr-default.h **** }
 221:c:\program files\daisytoolchain\arm-none-eabi\include\c++\10.2.1\arm-none-eabi\thumb\v7e-m+dp\hard\bits\gthr-default.h **** 
 222:c:\program files\daisytoolchain\arm-none-eabi\include\c++\10.2.1\arm-none-eabi\thumb\v7e-m+dp\hard\bits\gthr-default.h **** static inline int _GLIBCXX_UNUSED
 223:c:\program files\daisytoolchain\arm-none-eabi\include\c++\10.2.1\arm-none-eabi\thumb\v7e-m+dp\hard\bits\gthr-default.h **** __gthread_key_create (__gthread_key_t *__key _GLIBCXX_UNUSED, void (*__func) (void *) _GLIBCXX_UNUS
 224:c:\program files\daisytoolchain\arm-none-eabi\include\c++\10.2.1\arm-none-eabi\thumb\v7e-m+dp\hard\bits\gthr-default.h **** {
 225:c:\program files\daisytoolchain\arm-none-eabi\include\c++\10.2.1\arm-none-eabi\thumb\v7e-m+dp\hard\bits\gthr-default.h ****   return 0;
 226:c:\program files\daisytoolchain\arm-none-eabi\include\c++\10.2.1\arm-none-eabi\thumb\v7e-m+dp\hard\bits\gthr-default.h **** }
 227:c:\program files\daisytoolchain\arm-none-eabi\include\c++\10.2.1\arm-none-eabi\thumb\v7e-m+dp\hard\bits\gthr-default.h **** 
 228:c:\program files\daisytoolchain\arm-none-eabi\include\c++\10.2.1\arm-none-eabi\thumb\v7e-m+dp\hard\bits\gthr-default.h **** static int _GLIBCXX_UNUSED
 229:c:\program files\daisytoolchain\arm-none-eabi\include\c++\10.2.1\arm-none-eabi\thumb\v7e-m+dp\hard\bits\gthr-default.h **** __gthread_key_delete (__gthread_key_t __key _GLIBCXX_UNUSED)
 230:c:\program files\daisytoolchain\arm-none-eabi\include\c++\10.2.1\arm-none-eabi\thumb\v7e-m+dp\hard\bits\gthr-default.h **** {
 109              		.loc 3 230 1
 110              		.cfi_startproc
 111              		@ args = 0, pretend = 0, frame = 8
 112              		@ frame_needed = 1, uses_anonymous_args = 0
 113              		@ link register save eliminated.
 114 0000 80B4     		push	{r7}
 115              		.cfi_def_cfa_offset 4
 116              		.cfi_offset 7, -4
 117 0002 83B0     		sub	sp, sp, #12
 118              		.cfi_def_cfa_offset 16
 119 0004 00AF     		add	r7, sp, #0
 120              		.cfi_def_cfa_register 7
 121 0006 7860     		str	r0, [r7, #4]
 231:c:\program files\daisytoolchain\arm-none-eabi\include\c++\10.2.1\arm-none-eabi\thumb\v7e-m+dp\hard\bits\gthr-default.h ****   return 0;
 122              		.loc 3 231 10
 123 0008 0023     		movs	r3, #0
 232:c:\program files\daisytoolchain\arm-none-eabi\include\c++\10.2.1\arm-none-eabi\thumb\v7e-m+dp\hard\bits\gthr-default.h **** }
 124              		.loc 3 232 1
 125 000a 1846     		mov	r0, r3
 126 000c 0C37     		adds	r7, r7, #12
 127              		.cfi_def_cfa_offset 4
 128 000e BD46     		mov	sp, r7
 129              		.cfi_def_cfa_register 13
 130              		@ sp needed
 131 0010 5DF8047B 		ldr	r7, [sp], #4
 132              		.cfi_restore 7
 133              		.cfi_def_cfa_offset 0
 134 0014 7047     		bx	lr
 135              		.cfi_endproc
 136              	.LFE738:
 138              		.section	.rodata._ZStL19piecewise_construct,"a"
 139              		.align	2
 142              	_ZStL19piecewise_construct:
 143 0000 00       		.space	1
 144              		.section	.text._ZSt17__size_to_integerj,"axG",%progbits,_ZSt17__size_to_integerj,comdat
 145              		.align	1
 146              		.weak	_ZSt17__size_to_integerj
 147              		.syntax unified
 148              		.thumb
 149              		.thumb_func
 150              		.fpu fpv5-d16
 152              	_ZSt17__size_to_integerj:
 153              	.LFB881:
ARM GAS  C:\Users\hahnm\AppData\Local\Temp\cc4Pvs9Z.s 			page 38


 154              		.file 4 "c:\\program files\\daisytoolchain\\arm-none-eabi\\include\\c++\\10.2.1\\bits\\stl_algobas
   1:c:\program files\daisytoolchain\arm-none-eabi\include\c++\10.2.1\bits\stl_algobase.h **** // Core algorithmic facilities -*- C++ -*-
   2:c:\program files\daisytoolchain\arm-none-eabi\include\c++\10.2.1\bits\stl_algobase.h **** 
   3:c:\program files\daisytoolchain\arm-none-eabi\include\c++\10.2.1\bits\stl_algobase.h **** // Copyright (C) 2001-2020 Free Software Foundation, Inc.
   4:c:\program files\daisytoolchain\arm-none-eabi\include\c++\10.2.1\bits\stl_algobase.h **** //
   5:c:\program files\daisytoolchain\arm-none-eabi\include\c++\10.2.1\bits\stl_algobase.h **** // This file is part of the GNU ISO C++ Library.  This library is free
   6:c:\program files\daisytoolchain\arm-none-eabi\include\c++\10.2.1\bits\stl_algobase.h **** // software; you can redistribute it and/or modify it under the
   7:c:\program files\daisytoolchain\arm-none-eabi\include\c++\10.2.1\bits\stl_algobase.h **** // terms of the GNU General Public License as published by the
   8:c:\program files\daisytoolchain\arm-none-eabi\include\c++\10.2.1\bits\stl_algobase.h **** // Free Software Foundation; either version 3, or (at your option)
   9:c:\program files\daisytoolchain\arm-none-eabi\include\c++\10.2.1\bits\stl_algobase.h **** // any later version.
  10:c:\program files\daisytoolchain\arm-none-eabi\include\c++\10.2.1\bits\stl_algobase.h **** 
  11:c:\program files\daisytoolchain\arm-none-eabi\include\c++\10.2.1\bits\stl_algobase.h **** // This library is distributed in the hope that it will be useful,
  12:c:\program files\daisytoolchain\arm-none-eabi\include\c++\10.2.1\bits\stl_algobase.h **** // but WITHOUT ANY WARRANTY; without even the implied warranty of
  13:c:\program files\daisytoolchain\arm-none-eabi\include\c++\10.2.1\bits\stl_algobase.h **** // MERCHANTABILITY or FITNESS FOR A PARTICULAR PURPOSE.  See the
  14:c:\program files\daisytoolchain\arm-none-eabi\include\c++\10.2.1\bits\stl_algobase.h **** // GNU General Public License for more details.
  15:c:\program files\daisytoolchain\arm-none-eabi\include\c++\10.2.1\bits\stl_algobase.h **** 
  16:c:\program files\daisytoolchain\arm-none-eabi\include\c++\10.2.1\bits\stl_algobase.h **** // Under Section 7 of GPL version 3, you are granted additional
  17:c:\program files\daisytoolchain\arm-none-eabi\include\c++\10.2.1\bits\stl_algobase.h **** // permissions described in the GCC Runtime Library Exception, version
  18:c:\program files\daisytoolchain\arm-none-eabi\include\c++\10.2.1\bits\stl_algobase.h **** // 3.1, as published by the Free Software Foundation.
  19:c:\program files\daisytoolchain\arm-none-eabi\include\c++\10.2.1\bits\stl_algobase.h **** 
  20:c:\program files\daisytoolchain\arm-none-eabi\include\c++\10.2.1\bits\stl_algobase.h **** // You should have received a copy of the GNU General Public License and
  21:c:\program files\daisytoolchain\arm-none-eabi\include\c++\10.2.1\bits\stl_algobase.h **** // a copy of the GCC Runtime Library Exception along with this program;
  22:c:\program files\daisytoolchain\arm-none-eabi\include\c++\10.2.1\bits\stl_algobase.h **** // see the files COPYING3 and COPYING.RUNTIME respectively.  If not, see
  23:c:\program files\daisytoolchain\arm-none-eabi\include\c++\10.2.1\bits\stl_algobase.h **** // <http://www.gnu.org/licenses/>.
  24:c:\program files\daisytoolchain\arm-none-eabi\include\c++\10.2.1\bits\stl_algobase.h **** 
  25:c:\program files\daisytoolchain\arm-none-eabi\include\c++\10.2.1\bits\stl_algobase.h **** /*
  26:c:\program files\daisytoolchain\arm-none-eabi\include\c++\10.2.1\bits\stl_algobase.h ****  *
  27:c:\program files\daisytoolchain\arm-none-eabi\include\c++\10.2.1\bits\stl_algobase.h ****  * Copyright (c) 1994
  28:c:\program files\daisytoolchain\arm-none-eabi\include\c++\10.2.1\bits\stl_algobase.h ****  * Hewlett-Packard Company
  29:c:\program files\daisytoolchain\arm-none-eabi\include\c++\10.2.1\bits\stl_algobase.h ****  *
  30:c:\program files\daisytoolchain\arm-none-eabi\include\c++\10.2.1\bits\stl_algobase.h ****  * Permission to use, copy, modify, distribute and sell this software
  31:c:\program files\daisytoolchain\arm-none-eabi\include\c++\10.2.1\bits\stl_algobase.h ****  * and its documentation for any purpose is hereby granted without fee,
  32:c:\program files\daisytoolchain\arm-none-eabi\include\c++\10.2.1\bits\stl_algobase.h ****  * provided that the above copyright notice appear in all copies and
  33:c:\program files\daisytoolchain\arm-none-eabi\include\c++\10.2.1\bits\stl_algobase.h ****  * that both that copyright notice and this permission notice appear
  34:c:\program files\daisytoolchain\arm-none-eabi\include\c++\10.2.1\bits\stl_algobase.h ****  * in supporting documentation.  Hewlett-Packard Company makes no
  35:c:\program files\daisytoolchain\arm-none-eabi\include\c++\10.2.1\bits\stl_algobase.h ****  * representations about the suitability of this software for any
  36:c:\program files\daisytoolchain\arm-none-eabi\include\c++\10.2.1\bits\stl_algobase.h ****  * purpose.  It is provided "as is" without express or implied warranty.
  37:c:\program files\daisytoolchain\arm-none-eabi\include\c++\10.2.1\bits\stl_algobase.h ****  *
  38:c:\program files\daisytoolchain\arm-none-eabi\include\c++\10.2.1\bits\stl_algobase.h ****  *
  39:c:\program files\daisytoolchain\arm-none-eabi\include\c++\10.2.1\bits\stl_algobase.h ****  * Copyright (c) 1996-1998
  40:c:\program files\daisytoolchain\arm-none-eabi\include\c++\10.2.1\bits\stl_algobase.h ****  * Silicon Graphics Computer Systems, Inc.
  41:c:\program files\daisytoolchain\arm-none-eabi\include\c++\10.2.1\bits\stl_algobase.h ****  *
  42:c:\program files\daisytoolchain\arm-none-eabi\include\c++\10.2.1\bits\stl_algobase.h ****  * Permission to use, copy, modify, distribute and sell this software
  43:c:\program files\daisytoolchain\arm-none-eabi\include\c++\10.2.1\bits\stl_algobase.h ****  * and its documentation for any purpose is hereby granted without fee,
  44:c:\program files\daisytoolchain\arm-none-eabi\include\c++\10.2.1\bits\stl_algobase.h ****  * provided that the above copyright notice appear in all copies and
  45:c:\program files\daisytoolchain\arm-none-eabi\include\c++\10.2.1\bits\stl_algobase.h ****  * that both that copyright notice and this permission notice appear
  46:c:\program files\daisytoolchain\arm-none-eabi\include\c++\10.2.1\bits\stl_algobase.h ****  * in supporting documentation.  Silicon Graphics makes no
  47:c:\program files\daisytoolchain\arm-none-eabi\include\c++\10.2.1\bits\stl_algobase.h ****  * representations about the suitability of this software for any
  48:c:\program files\daisytoolchain\arm-none-eabi\include\c++\10.2.1\bits\stl_algobase.h ****  * purpose.  It is provided "as is" without express or implied warranty.
  49:c:\program files\daisytoolchain\arm-none-eabi\include\c++\10.2.1\bits\stl_algobase.h ****  */
  50:c:\program files\daisytoolchain\arm-none-eabi\include\c++\10.2.1\bits\stl_algobase.h **** 
  51:c:\program files\daisytoolchain\arm-none-eabi\include\c++\10.2.1\bits\stl_algobase.h **** /** @file bits/stl_algobase.h
  52:c:\program files\daisytoolchain\arm-none-eabi\include\c++\10.2.1\bits\stl_algobase.h ****  *  This is an internal header file, included by other library headers.
  53:c:\program files\daisytoolchain\arm-none-eabi\include\c++\10.2.1\bits\stl_algobase.h ****  *  Do not attempt to use it directly. @headername{algorithm}
  54:c:\program files\daisytoolchain\arm-none-eabi\include\c++\10.2.1\bits\stl_algobase.h ****  */
  55:c:\program files\daisytoolchain\arm-none-eabi\include\c++\10.2.1\bits\stl_algobase.h **** 
  56:c:\program files\daisytoolchain\arm-none-eabi\include\c++\10.2.1\bits\stl_algobase.h **** #ifndef _STL_ALGOBASE_H
ARM GAS  C:\Users\hahnm\AppData\Local\Temp\cc4Pvs9Z.s 			page 39


  57:c:\program files\daisytoolchain\arm-none-eabi\include\c++\10.2.1\bits\stl_algobase.h **** #define _STL_ALGOBASE_H 1
  58:c:\program files\daisytoolchain\arm-none-eabi\include\c++\10.2.1\bits\stl_algobase.h **** 
  59:c:\program files\daisytoolchain\arm-none-eabi\include\c++\10.2.1\bits\stl_algobase.h **** #include <bits/c++config.h>
  60:c:\program files\daisytoolchain\arm-none-eabi\include\c++\10.2.1\bits\stl_algobase.h **** #include <bits/functexcept.h>
  61:c:\program files\daisytoolchain\arm-none-eabi\include\c++\10.2.1\bits\stl_algobase.h **** #include <bits/cpp_type_traits.h>
  62:c:\program files\daisytoolchain\arm-none-eabi\include\c++\10.2.1\bits\stl_algobase.h **** #include <ext/type_traits.h>
  63:c:\program files\daisytoolchain\arm-none-eabi\include\c++\10.2.1\bits\stl_algobase.h **** #include <ext/numeric_traits.h>
  64:c:\program files\daisytoolchain\arm-none-eabi\include\c++\10.2.1\bits\stl_algobase.h **** #include <bits/stl_pair.h>
  65:c:\program files\daisytoolchain\arm-none-eabi\include\c++\10.2.1\bits\stl_algobase.h **** #include <bits/stl_iterator_base_types.h>
  66:c:\program files\daisytoolchain\arm-none-eabi\include\c++\10.2.1\bits\stl_algobase.h **** #include <bits/stl_iterator_base_funcs.h>
  67:c:\program files\daisytoolchain\arm-none-eabi\include\c++\10.2.1\bits\stl_algobase.h **** #include <bits/stl_iterator.h>
  68:c:\program files\daisytoolchain\arm-none-eabi\include\c++\10.2.1\bits\stl_algobase.h **** #include <bits/concept_check.h>
  69:c:\program files\daisytoolchain\arm-none-eabi\include\c++\10.2.1\bits\stl_algobase.h **** #include <debug/debug.h>
  70:c:\program files\daisytoolchain\arm-none-eabi\include\c++\10.2.1\bits\stl_algobase.h **** #include <bits/move.h> // For std::swap
  71:c:\program files\daisytoolchain\arm-none-eabi\include\c++\10.2.1\bits\stl_algobase.h **** #include <bits/predefined_ops.h>
  72:c:\program files\daisytoolchain\arm-none-eabi\include\c++\10.2.1\bits\stl_algobase.h **** #if __cplusplus >= 201103L
  73:c:\program files\daisytoolchain\arm-none-eabi\include\c++\10.2.1\bits\stl_algobase.h **** # include <type_traits>
  74:c:\program files\daisytoolchain\arm-none-eabi\include\c++\10.2.1\bits\stl_algobase.h **** #endif
  75:c:\program files\daisytoolchain\arm-none-eabi\include\c++\10.2.1\bits\stl_algobase.h **** #if __cplusplus > 201703L
  76:c:\program files\daisytoolchain\arm-none-eabi\include\c++\10.2.1\bits\stl_algobase.h **** # include <compare>
  77:c:\program files\daisytoolchain\arm-none-eabi\include\c++\10.2.1\bits\stl_algobase.h **** #endif
  78:c:\program files\daisytoolchain\arm-none-eabi\include\c++\10.2.1\bits\stl_algobase.h **** 
  79:c:\program files\daisytoolchain\arm-none-eabi\include\c++\10.2.1\bits\stl_algobase.h **** namespace std _GLIBCXX_VISIBILITY(default)
  80:c:\program files\daisytoolchain\arm-none-eabi\include\c++\10.2.1\bits\stl_algobase.h **** {
  81:c:\program files\daisytoolchain\arm-none-eabi\include\c++\10.2.1\bits\stl_algobase.h **** _GLIBCXX_BEGIN_NAMESPACE_VERSION
  82:c:\program files\daisytoolchain\arm-none-eabi\include\c++\10.2.1\bits\stl_algobase.h **** 
  83:c:\program files\daisytoolchain\arm-none-eabi\include\c++\10.2.1\bits\stl_algobase.h ****   /*
  84:c:\program files\daisytoolchain\arm-none-eabi\include\c++\10.2.1\bits\stl_algobase.h ****    * A constexpr wrapper for __builtin_memcmp.
  85:c:\program files\daisytoolchain\arm-none-eabi\include\c++\10.2.1\bits\stl_algobase.h ****    * @param __num The number of elements of type _Tp (not bytes).
  86:c:\program files\daisytoolchain\arm-none-eabi\include\c++\10.2.1\bits\stl_algobase.h ****    */
  87:c:\program files\daisytoolchain\arm-none-eabi\include\c++\10.2.1\bits\stl_algobase.h ****   template<typename _Tp, typename _Up>
  88:c:\program files\daisytoolchain\arm-none-eabi\include\c++\10.2.1\bits\stl_algobase.h ****     _GLIBCXX14_CONSTEXPR
  89:c:\program files\daisytoolchain\arm-none-eabi\include\c++\10.2.1\bits\stl_algobase.h ****     inline int
  90:c:\program files\daisytoolchain\arm-none-eabi\include\c++\10.2.1\bits\stl_algobase.h ****     __memcmp(const _Tp* __first1, const _Up* __first2, size_t __num)
  91:c:\program files\daisytoolchain\arm-none-eabi\include\c++\10.2.1\bits\stl_algobase.h ****     {
  92:c:\program files\daisytoolchain\arm-none-eabi\include\c++\10.2.1\bits\stl_algobase.h **** #if __cplusplus >= 201103L
  93:c:\program files\daisytoolchain\arm-none-eabi\include\c++\10.2.1\bits\stl_algobase.h ****       static_assert(sizeof(_Tp) == sizeof(_Up), "can be compared with memcmp");
  94:c:\program files\daisytoolchain\arm-none-eabi\include\c++\10.2.1\bits\stl_algobase.h **** #endif
  95:c:\program files\daisytoolchain\arm-none-eabi\include\c++\10.2.1\bits\stl_algobase.h **** #ifdef __cpp_lib_is_constant_evaluated
  96:c:\program files\daisytoolchain\arm-none-eabi\include\c++\10.2.1\bits\stl_algobase.h ****       if (std::is_constant_evaluated())
  97:c:\program files\daisytoolchain\arm-none-eabi\include\c++\10.2.1\bits\stl_algobase.h **** 	{
  98:c:\program files\daisytoolchain\arm-none-eabi\include\c++\10.2.1\bits\stl_algobase.h **** 	  for(; __num > 0; ++__first1, ++__first2, --__num)
  99:c:\program files\daisytoolchain\arm-none-eabi\include\c++\10.2.1\bits\stl_algobase.h **** 	    if (*__first1 != *__first2)
 100:c:\program files\daisytoolchain\arm-none-eabi\include\c++\10.2.1\bits\stl_algobase.h **** 	      return *__first1 < *__first2 ? -1 : 1;
 101:c:\program files\daisytoolchain\arm-none-eabi\include\c++\10.2.1\bits\stl_algobase.h **** 	  return 0;
 102:c:\program files\daisytoolchain\arm-none-eabi\include\c++\10.2.1\bits\stl_algobase.h **** 	}
 103:c:\program files\daisytoolchain\arm-none-eabi\include\c++\10.2.1\bits\stl_algobase.h ****       else
 104:c:\program files\daisytoolchain\arm-none-eabi\include\c++\10.2.1\bits\stl_algobase.h **** #endif
 105:c:\program files\daisytoolchain\arm-none-eabi\include\c++\10.2.1\bits\stl_algobase.h **** 	return __builtin_memcmp(__first1, __first2, sizeof(_Tp) * __num);
 106:c:\program files\daisytoolchain\arm-none-eabi\include\c++\10.2.1\bits\stl_algobase.h ****     }
 107:c:\program files\daisytoolchain\arm-none-eabi\include\c++\10.2.1\bits\stl_algobase.h **** 
 108:c:\program files\daisytoolchain\arm-none-eabi\include\c++\10.2.1\bits\stl_algobase.h **** #if __cplusplus < 201103L
 109:c:\program files\daisytoolchain\arm-none-eabi\include\c++\10.2.1\bits\stl_algobase.h ****   // See http://gcc.gnu.org/ml/libstdc++/2004-08/msg00167.html: in a
 110:c:\program files\daisytoolchain\arm-none-eabi\include\c++\10.2.1\bits\stl_algobase.h ****   // nutshell, we are partially implementing the resolution of DR 187,
 111:c:\program files\daisytoolchain\arm-none-eabi\include\c++\10.2.1\bits\stl_algobase.h ****   // when it's safe, i.e., the value_types are equal.
 112:c:\program files\daisytoolchain\arm-none-eabi\include\c++\10.2.1\bits\stl_algobase.h ****   template<bool _BoolType>
 113:c:\program files\daisytoolchain\arm-none-eabi\include\c++\10.2.1\bits\stl_algobase.h ****     struct __iter_swap
ARM GAS  C:\Users\hahnm\AppData\Local\Temp\cc4Pvs9Z.s 			page 40


 114:c:\program files\daisytoolchain\arm-none-eabi\include\c++\10.2.1\bits\stl_algobase.h ****     {
 115:c:\program files\daisytoolchain\arm-none-eabi\include\c++\10.2.1\bits\stl_algobase.h ****       template<typename _ForwardIterator1, typename _ForwardIterator2>
 116:c:\program files\daisytoolchain\arm-none-eabi\include\c++\10.2.1\bits\stl_algobase.h **** 	static void
 117:c:\program files\daisytoolchain\arm-none-eabi\include\c++\10.2.1\bits\stl_algobase.h **** 	iter_swap(_ForwardIterator1 __a, _ForwardIterator2 __b)
 118:c:\program files\daisytoolchain\arm-none-eabi\include\c++\10.2.1\bits\stl_algobase.h **** 	{
 119:c:\program files\daisytoolchain\arm-none-eabi\include\c++\10.2.1\bits\stl_algobase.h **** 	  typedef typename iterator_traits<_ForwardIterator1>::value_type
 120:c:\program files\daisytoolchain\arm-none-eabi\include\c++\10.2.1\bits\stl_algobase.h **** 	    _ValueType1;
 121:c:\program files\daisytoolchain\arm-none-eabi\include\c++\10.2.1\bits\stl_algobase.h **** 	  _ValueType1 __tmp = *__a;
 122:c:\program files\daisytoolchain\arm-none-eabi\include\c++\10.2.1\bits\stl_algobase.h **** 	  *__a = *__b;
 123:c:\program files\daisytoolchain\arm-none-eabi\include\c++\10.2.1\bits\stl_algobase.h **** 	  *__b = __tmp;
 124:c:\program files\daisytoolchain\arm-none-eabi\include\c++\10.2.1\bits\stl_algobase.h **** 	}
 125:c:\program files\daisytoolchain\arm-none-eabi\include\c++\10.2.1\bits\stl_algobase.h ****     };
 126:c:\program files\daisytoolchain\arm-none-eabi\include\c++\10.2.1\bits\stl_algobase.h **** 
 127:c:\program files\daisytoolchain\arm-none-eabi\include\c++\10.2.1\bits\stl_algobase.h ****   template<>
 128:c:\program files\daisytoolchain\arm-none-eabi\include\c++\10.2.1\bits\stl_algobase.h ****     struct __iter_swap<true>
 129:c:\program files\daisytoolchain\arm-none-eabi\include\c++\10.2.1\bits\stl_algobase.h ****     {
 130:c:\program files\daisytoolchain\arm-none-eabi\include\c++\10.2.1\bits\stl_algobase.h ****       template<typename _ForwardIterator1, typename _ForwardIterator2>
 131:c:\program files\daisytoolchain\arm-none-eabi\include\c++\10.2.1\bits\stl_algobase.h **** 	static void
 132:c:\program files\daisytoolchain\arm-none-eabi\include\c++\10.2.1\bits\stl_algobase.h **** 	iter_swap(_ForwardIterator1 __a, _ForwardIterator2 __b)
 133:c:\program files\daisytoolchain\arm-none-eabi\include\c++\10.2.1\bits\stl_algobase.h **** 	{
 134:c:\program files\daisytoolchain\arm-none-eabi\include\c++\10.2.1\bits\stl_algobase.h **** 	  swap(*__a, *__b);
 135:c:\program files\daisytoolchain\arm-none-eabi\include\c++\10.2.1\bits\stl_algobase.h **** 	}
 136:c:\program files\daisytoolchain\arm-none-eabi\include\c++\10.2.1\bits\stl_algobase.h ****     };
 137:c:\program files\daisytoolchain\arm-none-eabi\include\c++\10.2.1\bits\stl_algobase.h **** #endif // C++03
 138:c:\program files\daisytoolchain\arm-none-eabi\include\c++\10.2.1\bits\stl_algobase.h **** 
 139:c:\program files\daisytoolchain\arm-none-eabi\include\c++\10.2.1\bits\stl_algobase.h ****   /**
 140:c:\program files\daisytoolchain\arm-none-eabi\include\c++\10.2.1\bits\stl_algobase.h ****    *  @brief Swaps the contents of two iterators.
 141:c:\program files\daisytoolchain\arm-none-eabi\include\c++\10.2.1\bits\stl_algobase.h ****    *  @ingroup mutating_algorithms
 142:c:\program files\daisytoolchain\arm-none-eabi\include\c++\10.2.1\bits\stl_algobase.h ****    *  @param  __a  An iterator.
 143:c:\program files\daisytoolchain\arm-none-eabi\include\c++\10.2.1\bits\stl_algobase.h ****    *  @param  __b  Another iterator.
 144:c:\program files\daisytoolchain\arm-none-eabi\include\c++\10.2.1\bits\stl_algobase.h ****    *  @return   Nothing.
 145:c:\program files\daisytoolchain\arm-none-eabi\include\c++\10.2.1\bits\stl_algobase.h ****    *
 146:c:\program files\daisytoolchain\arm-none-eabi\include\c++\10.2.1\bits\stl_algobase.h ****    *  This function swaps the values pointed to by two iterators, not the
